ARM GAS  C:\Users\nbutts\AppData\Local\Temp\ccpJOgy8.s 			page 1


   1              		.syntax unified
   2              		.cpu cortex-m0plus
   3              		.fpu softvfp
   4              		.eabi_attribute 20, 1
   5              		.eabi_attribute 21, 1
   6              		.eabi_attribute 23, 3
   7              		.eabi_attribute 24, 1
   8              		.eabi_attribute 25, 1
   9              		.eabi_attribute 26, 1
  10              		.eabi_attribute 30, 1
  11              		.eabi_attribute 34, 0
  12              		.eabi_attribute 18, 4
  13              		.thumb
  14              		.syntax unified
  15              		.file	"ADC_1_PM.c"
  16              		.text
  17              	.Ltext0:
  18              		.cfi_sections	.debug_frame
  19              		.section	.text.ADC_1_Sleep,"ax",%progbits
  20              		.align	2
  21              		.global	ADC_1_Sleep
  22              		.code	16
  23              		.thumb_func
  24              		.type	ADC_1_Sleep, %function
  25              	ADC_1_Sleep:
  26              	.LFB1:
  27              		.file 1 "Generated_Source\\PSoC4\\ADC_1_PM.c"
   1:Generated_Source\PSoC4/ADC_1_PM.c **** /***************************************************************************//**
   2:Generated_Source\PSoC4/ADC_1_PM.c **** * \file ADC_1_PM.c  
   3:Generated_Source\PSoC4/ADC_1_PM.c **** * \version 2.0
   4:Generated_Source\PSoC4/ADC_1_PM.c **** *
   5:Generated_Source\PSoC4/ADC_1_PM.c **** * \brief
   6:Generated_Source\PSoC4/ADC_1_PM.c **** *  This file provides the power manager source code to the API for 
   7:Generated_Source\PSoC4/ADC_1_PM.c **** *  ADC_1 component.
   8:Generated_Source\PSoC4/ADC_1_PM.c **** *
   9:Generated_Source\PSoC4/ADC_1_PM.c **** ********************************************************************************
  10:Generated_Source\PSoC4/ADC_1_PM.c **** * \copyright
  11:Generated_Source\PSoC4/ADC_1_PM.c **** * (c) 2015-2016, Cypress Semiconductor Corporation. All rights reserved.
  12:Generated_Source\PSoC4/ADC_1_PM.c **** * This software, including source code, documentation and related
  13:Generated_Source\PSoC4/ADC_1_PM.c **** * materials ("Software"), is owned by Cypress Semiconductor
  14:Generated_Source\PSoC4/ADC_1_PM.c **** * Corporation ("Cypress") and is protected by and subject to worldwide
  15:Generated_Source\PSoC4/ADC_1_PM.c **** * patent protection (United States and foreign), United States copyright
  16:Generated_Source\PSoC4/ADC_1_PM.c **** * laws and international treaty provisions. Therefore, you may use this
  17:Generated_Source\PSoC4/ADC_1_PM.c **** * Software only as provided in the license agreement accompanying the
  18:Generated_Source\PSoC4/ADC_1_PM.c **** * software package from which you obtained this Software ("EULA").
  19:Generated_Source\PSoC4/ADC_1_PM.c **** * If no EULA applies, Cypress hereby grants you a personal, nonexclusive,
  20:Generated_Source\PSoC4/ADC_1_PM.c **** * non-transferable license to copy, modify, and compile the
  21:Generated_Source\PSoC4/ADC_1_PM.c **** * Software source code solely for use in connection with Cypress's
  22:Generated_Source\PSoC4/ADC_1_PM.c **** * integrated circuit products. Any reproduction, modification, translation,
  23:Generated_Source\PSoC4/ADC_1_PM.c **** * compilation, or representation of this Software except as specified
  24:Generated_Source\PSoC4/ADC_1_PM.c **** * above is prohibited without the express written permission of Cypress.
  25:Generated_Source\PSoC4/ADC_1_PM.c **** * Disclaimer: THIS SOFTWARE IS PROVIDED AS-IS, WITH NO
  26:Generated_Source\PSoC4/ADC_1_PM.c **** * WARRANTY OF ANY KIND, EXPRESS OR IMPLIED, INCLUDING,
  27:Generated_Source\PSoC4/ADC_1_PM.c **** * BUT NOT LIMITED TO, NONINFRINGEMENT, IMPLIED
  28:Generated_Source\PSoC4/ADC_1_PM.c **** * WARRANTIES OF MERCHANTABILITY AND FITNESS FOR A
  29:Generated_Source\PSoC4/ADC_1_PM.c **** * PARTICULAR PURPOSE. Cypress reserves the right to make
  30:Generated_Source\PSoC4/ADC_1_PM.c **** * changes to the Software without notice. Cypress does not assume any
ARM GAS  C:\Users\nbutts\AppData\Local\Temp\ccpJOgy8.s 			page 2


  31:Generated_Source\PSoC4/ADC_1_PM.c **** * liability arising out of the application or use of the Software or any
  32:Generated_Source\PSoC4/ADC_1_PM.c **** * product or circuit described in the Software. Cypress does not
  33:Generated_Source\PSoC4/ADC_1_PM.c **** * authorize its products for use in any products where a malfunction or
  34:Generated_Source\PSoC4/ADC_1_PM.c **** * failure of the Cypress product may reasonably be expected to result in
  35:Generated_Source\PSoC4/ADC_1_PM.c **** * significant property damage, injury or death ("High Risk Product"). By
  36:Generated_Source\PSoC4/ADC_1_PM.c **** * including Cypress's product in a High Risk Product, the manufacturer
  37:Generated_Source\PSoC4/ADC_1_PM.c **** * of such system or application assumes all risk of such use and in doing
  38:Generated_Source\PSoC4/ADC_1_PM.c **** * so agrees to indemnify Cypress against all liability.
  39:Generated_Source\PSoC4/ADC_1_PM.c **** *******************************************************************************/
  40:Generated_Source\PSoC4/ADC_1_PM.c **** 
  41:Generated_Source\PSoC4/ADC_1_PM.c **** #include "ADC_1.h"
  42:Generated_Source\PSoC4/ADC_1_PM.c **** 
  43:Generated_Source\PSoC4/ADC_1_PM.c **** /**
  44:Generated_Source\PSoC4/ADC_1_PM.c **** * \addtogroup group_globals
  45:Generated_Source\PSoC4/ADC_1_PM.c **** * @{
  46:Generated_Source\PSoC4/ADC_1_PM.c **** */
  47:Generated_Source\PSoC4/ADC_1_PM.c **** /** Contains configuration of ADC_1 before sleep. Enable state is the
  48:Generated_Source\PSoC4/ADC_1_PM.c **** *   only data required to be preserved. */
  49:Generated_Source\PSoC4/ADC_1_PM.c **** static ADC_1_BACKUP_STRUCT  ADC_1_backup =
  50:Generated_Source\PSoC4/ADC_1_PM.c **** {
  51:Generated_Source\PSoC4/ADC_1_PM.c ****     0u,
  52:Generated_Source\PSoC4/ADC_1_PM.c **** };
  53:Generated_Source\PSoC4/ADC_1_PM.c **** /** @} globals */
  54:Generated_Source\PSoC4/ADC_1_PM.c **** 
  55:Generated_Source\PSoC4/ADC_1_PM.c **** 
  56:Generated_Source\PSoC4/ADC_1_PM.c **** /*******************************************************************************   
  57:Generated_Source\PSoC4/ADC_1_PM.c **** * Function Name: ADC_1_Sleep
  58:Generated_Source\PSoC4/ADC_1_PM.c **** ****************************************************************************//**
  59:Generated_Source\PSoC4/ADC_1_PM.c **** *
  60:Generated_Source\PSoC4/ADC_1_PM.c **** * \brief This is the preferred routine to prepare the component for sleep. The 
  61:Generated_Source\PSoC4/ADC_1_PM.c **** * ADC_1_Sleep() routine saves the current component state. Then it 
  62:Generated_Source\PSoC4/ADC_1_PM.c **** * calls the ADC_1_Stop() function and calls 
  63:Generated_Source\PSoC4/ADC_1_PM.c **** * ADC_1_SaveConfig() to save the hardware configuration.
  64:Generated_Source\PSoC4/ADC_1_PM.c **** * 
  65:Generated_Source\PSoC4/ADC_1_PM.c **** * Call the ADC_1_Sleep() function before calling the 
  66:Generated_Source\PSoC4/ADC_1_PM.c **** * CySysPmDeepSleep() or the CySysPmHibernate() function. See the PSoC Creator 
  67:Generated_Source\PSoC4/ADC_1_PM.c **** * System Reference Guide for more information about power-management functions.
  68:Generated_Source\PSoC4/ADC_1_PM.c **** * 
  69:Generated_Source\PSoC4/ADC_1_PM.c **** * \param None
  70:Generated_Source\PSoC4/ADC_1_PM.c **** * 
  71:Generated_Source\PSoC4/ADC_1_PM.c **** * \return None
  72:Generated_Source\PSoC4/ADC_1_PM.c **** *
  73:Generated_Source\PSoC4/ADC_1_PM.c **** * \sideeffect If this function is called twice in the enable state of the 
  74:Generated_Source\PSoC4/ADC_1_PM.c **** * component, the disabled state of the component will be stored. So 
  75:Generated_Source\PSoC4/ADC_1_PM.c **** * ADC_1_Enable() and ADC_1_StartConvert() must be called 
  76:Generated_Source\PSoC4/ADC_1_PM.c **** * after ADC_1_Wakeup() in this case.
  77:Generated_Source\PSoC4/ADC_1_PM.c **** *
  78:Generated_Source\PSoC4/ADC_1_PM.c **** * <b>Code Snippet</b>
  79:Generated_Source\PSoC4/ADC_1_PM.c **** *  \snippet main.c snippet_ADC_1_Sleep
  80:Generated_Source\PSoC4/ADC_1_PM.c **** *
  81:Generated_Source\PSoC4/ADC_1_PM.c **** * \globalvars
  82:Generated_Source\PSoC4/ADC_1_PM.c **** *  \ref ADC_1_backup (W)
  83:Generated_Source\PSoC4/ADC_1_PM.c **** *
  84:Generated_Source\PSoC4/ADC_1_PM.c **** * \globalvars
  85:Generated_Source\PSoC4/ADC_1_PM.c **** *  \ref ADC_1_backup
  86:Generated_Source\PSoC4/ADC_1_PM.c **** *
  87:Generated_Source\PSoC4/ADC_1_PM.c **** *******************************************************************************/
ARM GAS  C:\Users\nbutts\AppData\Local\Temp\ccpJOgy8.s 			page 3


  88:Generated_Source\PSoC4/ADC_1_PM.c **** void ADC_1_Sleep(void) 
  89:Generated_Source\PSoC4/ADC_1_PM.c **** {
  28              		.loc 1 89 0
  29              		.cfi_startproc
  30              		@ args = 0, pretend = 0, frame = 0
  31              		@ frame_needed = 0, uses_anonymous_args = 0
  32 0000 10B5     		push	{r4, lr}
  33              		.cfi_def_cfa_offset 8
  34              		.cfi_offset 4, -8
  35              		.cfi_offset 14, -4
  90:Generated_Source\PSoC4/ADC_1_PM.c ****     uint32 dftRegVal = (uint32) ADC_1_SAR_DFT_CTRL_REG;
  36              		.loc 1 90 0
  37 0002 1E4B     		ldr	r3, .L7
  38 0004 1B68     		ldr	r3, [r3]
  39              	.LVL0:
  91:Generated_Source\PSoC4/ADC_1_PM.c **** 
  92:Generated_Source\PSoC4/ADC_1_PM.c ****     ADC_1_backup.enableState = 0u;
  40              		.loc 1 92 0
  41 0006 0021     		movs	r1, #0
  42 0008 1D4A     		ldr	r2, .L7+4
  43 000a 1170     		strb	r1, [r2]
  93:Generated_Source\PSoC4/ADC_1_PM.c ****     
  94:Generated_Source\PSoC4/ADC_1_PM.c ****     /* Save nonretention SAR_DFT_CTRL register state. */
  95:Generated_Source\PSoC4/ADC_1_PM.c ****     if((dftRegVal & ADC_1_SAR_DFT_CTRL_DCEN_MSK) != 0u)
  44              		.loc 1 95 0
  45 000c 9A00     		lsls	r2, r3, #2
  46 000e 02D5     		bpl	.L2
  96:Generated_Source\PSoC4/ADC_1_PM.c ****     {
  97:Generated_Source\PSoC4/ADC_1_PM.c ****         ADC_1_backup.enableState |= ADC_1_SLEEP_DFT_DCEN;
  47              		.loc 1 97 0
  48 0010 0831     		adds	r1, r1, #8
  49 0012 1B4A     		ldr	r2, .L7+4
  50 0014 1170     		strb	r1, [r2]
  51              	.L2:
  98:Generated_Source\PSoC4/ADC_1_PM.c ****     }
  99:Generated_Source\PSoC4/ADC_1_PM.c ****     if((dftRegVal & ADC_1_SAR_DFT_CTRL_DLY_INC_MSK) != 0u)
  52              		.loc 1 99 0
  53 0016 DB07     		lsls	r3, r3, #31
  54 0018 04D5     		bpl	.L3
  55              	.LVL1:
 100:Generated_Source\PSoC4/ADC_1_PM.c ****     {
 101:Generated_Source\PSoC4/ADC_1_PM.c ****         ADC_1_backup.enableState |= ADC_1_SLEEP_DFT_DLY_INC;
  56              		.loc 1 101 0
  57 001a 194A     		ldr	r2, .L7+4
  58 001c 1178     		ldrb	r1, [r2]
  59 001e 1023     		movs	r3, #16
  60 0020 0B43     		orrs	r3, r1
  61 0022 1370     		strb	r3, [r2]
  62              	.L3:
 102:Generated_Source\PSoC4/ADC_1_PM.c ****     }
 103:Generated_Source\PSoC4/ADC_1_PM.c ****     
 104:Generated_Source\PSoC4/ADC_1_PM.c ****     /* During deepsleep/ hibernate mode keep SARMUX active, i.e. do not open
 105:Generated_Source\PSoC4/ADC_1_PM.c ****     *   all switches (disconnect), to be used for ADFT
 106:Generated_Source\PSoC4/ADC_1_PM.c ****     */
 107:Generated_Source\PSoC4/ADC_1_PM.c ****     ADC_1_SAR_DFT_CTRL_REG |= ADC_1_SAR_DFT_CTRL_ADFT_OVERRIDE_MSK;
  63              		.loc 1 107 0
  64 0024 154A     		ldr	r2, .L7
ARM GAS  C:\Users\nbutts\AppData\Local\Temp\ccpJOgy8.s 			page 4


  65 0026 1368     		ldr	r3, [r2]
  66 0028 8021     		movs	r1, #128
  67 002a 0906     		lsls	r1, r1, #24
  68 002c 0B43     		orrs	r3, r1
  69 002e 1360     		str	r3, [r2]
 108:Generated_Source\PSoC4/ADC_1_PM.c ****     
 109:Generated_Source\PSoC4/ADC_1_PM.c ****     if((ADC_1_SAR_CTRL_REG  & ADC_1_SAR_CTRL_ENABLED_MSK) != 0u)
  70              		.loc 1 109 0
  71 0030 144B     		ldr	r3, .L7+8
  72 0032 1B68     		ldr	r3, [r3]
  73 0034 002B     		cmp	r3, #0
  74 0036 11DA     		bge	.L4
 110:Generated_Source\PSoC4/ADC_1_PM.c ****     {
 111:Generated_Source\PSoC4/ADC_1_PM.c ****         ADC_1_backup.enableState |= ADC_1_ENABLED;
  75              		.loc 1 111 0
  76 0038 114A     		ldr	r2, .L7+4
  77 003a 1178     		ldrb	r1, [r2]
  78 003c 0123     		movs	r3, #1
  79 003e 0B43     		orrs	r3, r1
  80 0040 DBB2     		uxtb	r3, r3
  81 0042 1370     		strb	r3, [r2]
 112:Generated_Source\PSoC4/ADC_1_PM.c ****         if((ADC_1_SAR_SAMPLE_CTRL_REG & ADC_1_SAR_SAMPLE_CTRL_CONTINUOUS_MSK) != 0u)
  82              		.loc 1 112 0
  83 0044 104A     		ldr	r2, .L7+12
  84 0046 1268     		ldr	r2, [r2]
  85 0048 D203     		lsls	r2, r2, #15
  86 004a 03D5     		bpl	.L5
 113:Generated_Source\PSoC4/ADC_1_PM.c ****         {
 114:Generated_Source\PSoC4/ADC_1_PM.c ****             ADC_1_backup.enableState |= ADC_1_STARTED;
  87              		.loc 1 114 0
  88 004c 0222     		movs	r2, #2
  89 004e 1343     		orrs	r3, r2
  90 0050 0B4A     		ldr	r2, .L7+4
  91 0052 1370     		strb	r3, [r2]
  92              	.L5:
 115:Generated_Source\PSoC4/ADC_1_PM.c ****         }
 116:Generated_Source\PSoC4/ADC_1_PM.c **** 
 117:Generated_Source\PSoC4/ADC_1_PM.c ****         ADC_1_StopConvert();
  93              		.loc 1 117 0
  94 0054 FFF7FEFF 		bl	ADC_1_StopConvert
  95              	.LVL2:
 118:Generated_Source\PSoC4/ADC_1_PM.c ****         ADC_1_Stop();
  96              		.loc 1 118 0
  97 0058 FFF7FEFF 		bl	ADC_1_Stop
  98              	.LVL3:
  99              	.L4:
 119:Generated_Source\PSoC4/ADC_1_PM.c ****     }
 120:Generated_Source\PSoC4/ADC_1_PM.c **** 
 121:Generated_Source\PSoC4/ADC_1_PM.c ****     /* Disable the SAR internal pump before entering the chip low power mode */
 122:Generated_Source\PSoC4/ADC_1_PM.c ****     if((ADC_1_SAR_CTRL_REG & ADC_1_SAR_CTRL_BOOSTPUMP_EN_MSK) != 0u)
 100              		.loc 1 122 0
 101 005c 094B     		ldr	r3, .L7+8
 102 005e 1B68     		ldr	r3, [r3]
 103 0060 DB02     		lsls	r3, r3, #11
 104 0062 09D5     		bpl	.L1
 123:Generated_Source\PSoC4/ADC_1_PM.c ****     {
 124:Generated_Source\PSoC4/ADC_1_PM.c ****         ADC_1_SAR_CTRL_REG &= (uint32)~ADC_1_SAR_CTRL_BOOSTPUMP_EN_MSK;
ARM GAS  C:\Users\nbutts\AppData\Local\Temp\ccpJOgy8.s 			page 5


 105              		.loc 1 124 0
 106 0064 074A     		ldr	r2, .L7+8
 107 0066 1168     		ldr	r1, [r2]
 108 0068 084B     		ldr	r3, .L7+16
 109 006a 0B40     		ands	r3, r1
 110 006c 1360     		str	r3, [r2]
 125:Generated_Source\PSoC4/ADC_1_PM.c ****         ADC_1_backup.enableState |= ADC_1_BOOSTPUMP_ENABLED;
 111              		.loc 1 125 0
 112 006e 044A     		ldr	r2, .L7+4
 113 0070 1178     		ldrb	r1, [r2]
 114 0072 0423     		movs	r3, #4
 115 0074 0B43     		orrs	r3, r1
 116 0076 1370     		strb	r3, [r2]
 117              	.L1:
 126:Generated_Source\PSoC4/ADC_1_PM.c ****     }
 127:Generated_Source\PSoC4/ADC_1_PM.c **** }
 118              		.loc 1 127 0
 119              		@ sp needed
 120 0078 10BD     		pop	{r4, pc}
 121              	.L8:
 122 007a C046     		.align	2
 123              	.L7:
 124 007c 30003A40 		.word	1077542960
 125 0080 00000000 		.word	.LANCHOR0
 126 0084 00003A40 		.word	1077542912
 127 0088 04003A40 		.word	1077542916
 128 008c FFFFEFFF 		.word	-1048577
 129              		.cfi_endproc
 130              	.LFE1:
 131              		.size	ADC_1_Sleep, .-ADC_1_Sleep
 132              		.section	.text.ADC_1_Wakeup,"ax",%progbits
 133              		.align	2
 134              		.global	ADC_1_Wakeup
 135              		.code	16
 136              		.thumb_func
 137              		.type	ADC_1_Wakeup, %function
 138              	ADC_1_Wakeup:
 139              	.LFB2:
 128:Generated_Source\PSoC4/ADC_1_PM.c **** 
 129:Generated_Source\PSoC4/ADC_1_PM.c **** 
 130:Generated_Source\PSoC4/ADC_1_PM.c **** /*******************************************************************************
 131:Generated_Source\PSoC4/ADC_1_PM.c **** * Function Name: ADC_1_Wakeup
 132:Generated_Source\PSoC4/ADC_1_PM.c **** ****************************************************************************//**
 133:Generated_Source\PSoC4/ADC_1_PM.c **** *
 134:Generated_Source\PSoC4/ADC_1_PM.c **** * \brief This is the preferred routine to restore the component to the state when 
 135:Generated_Source\PSoC4/ADC_1_PM.c **** * ADC_1_Sleep() was called. The ADC_1_Wakeup() function 
 136:Generated_Source\PSoC4/ADC_1_PM.c **** * calls the ADC_1_RestoreConfig() function to restore the 
 137:Generated_Source\PSoC4/ADC_1_PM.c **** * configuration. If the component was enabled before the ADC_1_Sleep() 
 138:Generated_Source\PSoC4/ADC_1_PM.c **** * function was called, the ADC_1_Wakeup() function also re-enables the 
 139:Generated_Source\PSoC4/ADC_1_PM.c **** * component.
 140:Generated_Source\PSoC4/ADC_1_PM.c **** *
 141:Generated_Source\PSoC4/ADC_1_PM.c **** * \param None
 142:Generated_Source\PSoC4/ADC_1_PM.c **** * 
 143:Generated_Source\PSoC4/ADC_1_PM.c **** * \return None
 144:Generated_Source\PSoC4/ADC_1_PM.c **** *
 145:Generated_Source\PSoC4/ADC_1_PM.c **** * \sideeffect
 146:Generated_Source\PSoC4/ADC_1_PM.c **** * Calling this function without previously calling ADC_1_Sleep() may lead to 
ARM GAS  C:\Users\nbutts\AppData\Local\Temp\ccpJOgy8.s 			page 6


 147:Generated_Source\PSoC4/ADC_1_PM.c **** * unpredictable results.
 148:Generated_Source\PSoC4/ADC_1_PM.c **** *
 149:Generated_Source\PSoC4/ADC_1_PM.c **** * <b>Code Snippet</b>
 150:Generated_Source\PSoC4/ADC_1_PM.c **** *  \snippet main.c snippet_ADC_1_Wakeup
 151:Generated_Source\PSoC4/ADC_1_PM.c **** *
 152:Generated_Source\PSoC4/ADC_1_PM.c **** * \globalvars
 153:Generated_Source\PSoC4/ADC_1_PM.c **** *  \ref ADC_1_backup (R)
 154:Generated_Source\PSoC4/ADC_1_PM.c **** *
 155:Generated_Source\PSoC4/ADC_1_PM.c **** * \globalvars
 156:Generated_Source\PSoC4/ADC_1_PM.c **** *  \ref ADC_1_backup
 157:Generated_Source\PSoC4/ADC_1_PM.c **** * 
 158:Generated_Source\PSoC4/ADC_1_PM.c **** *******************************************************************************/
 159:Generated_Source\PSoC4/ADC_1_PM.c **** void ADC_1_Wakeup(void)
 160:Generated_Source\PSoC4/ADC_1_PM.c **** {
 140              		.loc 1 160 0
 141              		.cfi_startproc
 142              		@ args = 0, pretend = 0, frame = 0
 143              		@ frame_needed = 0, uses_anonymous_args = 0
 144 0000 10B5     		push	{r4, lr}
 145              		.cfi_def_cfa_offset 8
 146              		.cfi_offset 4, -8
 147              		.cfi_offset 14, -4
 148              	.LVL4:
 161:Generated_Source\PSoC4/ADC_1_PM.c ****     uint32 dftRegVal = (uint32)ADC_1_SAR_DFT_CTRL_HIZ_MSK;
 162:Generated_Source\PSoC4/ADC_1_PM.c ****     
 163:Generated_Source\PSoC4/ADC_1_PM.c ****     /* Restore nonretention SAR_DFT_CTRL register state. */
 164:Generated_Source\PSoC4/ADC_1_PM.c ****     if ((ADC_1_backup.enableState & ADC_1_SLEEP_DFT_DCEN) != 0u)
 149              		.loc 1 164 0
 150 0002 114B     		ldr	r3, .L15
 151 0004 1A78     		ldrb	r2, [r3]
 152 0006 1307     		lsls	r3, r2, #28
 153 0008 01D4     		bmi	.L14
 161:Generated_Source\PSoC4/ADC_1_PM.c ****     uint32 dftRegVal = (uint32)ADC_1_SAR_DFT_CTRL_HIZ_MSK;
 154              		.loc 1 161 0
 155 000a 0223     		movs	r3, #2
 156 000c 00E0     		b	.L10
 157              	.L14:
 165:Generated_Source\PSoC4/ADC_1_PM.c ****     {
 166:Generated_Source\PSoC4/ADC_1_PM.c ****         dftRegVal |= ADC_1_SAR_DFT_CTRL_DCEN_MSK;
 158              		.loc 1 166 0
 159 000e 0F4B     		ldr	r3, .L15+4
 160              	.L10:
 161              	.LVL5:
 167:Generated_Source\PSoC4/ADC_1_PM.c ****     }
 168:Generated_Source\PSoC4/ADC_1_PM.c ****     if ((ADC_1_backup.enableState & ADC_1_SLEEP_DFT_DLY_INC) != 0u)
 162              		.loc 1 168 0
 163 0010 D206     		lsls	r2, r2, #27
 164 0012 01D5     		bpl	.L11
 169:Generated_Source\PSoC4/ADC_1_PM.c ****     {
 170:Generated_Source\PSoC4/ADC_1_PM.c ****         dftRegVal |= ADC_1_SAR_DFT_CTRL_DLY_INC_MSK;
 165              		.loc 1 170 0
 166 0014 0122     		movs	r2, #1
 167 0016 1343     		orrs	r3, r2
 168              	.LVL6:
 169              	.L11:
 171:Generated_Source\PSoC4/ADC_1_PM.c ****     }
 172:Generated_Source\PSoC4/ADC_1_PM.c ****     ADC_1_SAR_DFT_CTRL_REG = dftRegVal;
ARM GAS  C:\Users\nbutts\AppData\Local\Temp\ccpJOgy8.s 			page 7


 170              		.loc 1 172 0
 171 0018 0D4A     		ldr	r2, .L15+8
 172 001a 1360     		str	r3, [r2]
 173:Generated_Source\PSoC4/ADC_1_PM.c ****     
 174:Generated_Source\PSoC4/ADC_1_PM.c ****     if((ADC_1_backup.enableState & ADC_1_ENABLED) != 0u)
 173              		.loc 1 174 0
 174 001c 0A4B     		ldr	r3, .L15
 175              	.LVL7:
 176 001e 1B78     		ldrb	r3, [r3]
 177 0020 DA07     		lsls	r2, r3, #31
 178 0022 0FD5     		bpl	.L9
 179              	.LVL8:
 175:Generated_Source\PSoC4/ADC_1_PM.c ****     {
 176:Generated_Source\PSoC4/ADC_1_PM.c ****         /* Enable the SAR internal pump  */
 177:Generated_Source\PSoC4/ADC_1_PM.c ****         if((ADC_1_backup.enableState & ADC_1_BOOSTPUMP_ENABLED) != 0u)
 180              		.loc 1 177 0
 181 0024 5B07     		lsls	r3, r3, #29
 182 0026 05D5     		bpl	.L13
 178:Generated_Source\PSoC4/ADC_1_PM.c ****         {
 179:Generated_Source\PSoC4/ADC_1_PM.c ****             ADC_1_SAR_CTRL_REG |= ADC_1_SAR_CTRL_BOOSTPUMP_EN_MSK;
 183              		.loc 1 179 0
 184 0028 0A4A     		ldr	r2, .L15+12
 185 002a 1368     		ldr	r3, [r2]
 186 002c 8021     		movs	r1, #128
 187 002e 4903     		lsls	r1, r1, #13
 188 0030 0B43     		orrs	r3, r1
 189 0032 1360     		str	r3, [r2]
 190              	.LVL9:
 191              	.L13:
 180:Generated_Source\PSoC4/ADC_1_PM.c ****         }
 181:Generated_Source\PSoC4/ADC_1_PM.c ****         
 182:Generated_Source\PSoC4/ADC_1_PM.c ****         ADC_1_Enable();
 192              		.loc 1 182 0
 193 0034 FFF7FEFF 		bl	ADC_1_Enable
 194              	.LVL10:
 183:Generated_Source\PSoC4/ADC_1_PM.c ****         
 184:Generated_Source\PSoC4/ADC_1_PM.c ****         if((ADC_1_backup.enableState & ADC_1_STARTED) != 0u)
 195              		.loc 1 184 0
 196 0038 034B     		ldr	r3, .L15
 197 003a 1B78     		ldrb	r3, [r3]
 198 003c 9B07     		lsls	r3, r3, #30
 199 003e 01D5     		bpl	.L9
 185:Generated_Source\PSoC4/ADC_1_PM.c ****         {
 186:Generated_Source\PSoC4/ADC_1_PM.c ****             ADC_1_StartConvert();
 200              		.loc 1 186 0
 201 0040 FFF7FEFF 		bl	ADC_1_StartConvert
 202              	.LVL11:
 203              	.L9:
 187:Generated_Source\PSoC4/ADC_1_PM.c ****         }
 188:Generated_Source\PSoC4/ADC_1_PM.c ****     }
 189:Generated_Source\PSoC4/ADC_1_PM.c **** }
 204              		.loc 1 189 0
 205              		@ sp needed
 206 0044 10BD     		pop	{r4, pc}
 207              	.L16:
 208 0046 C046     		.align	2
 209              	.L15:
ARM GAS  C:\Users\nbutts\AppData\Local\Temp\ccpJOgy8.s 			page 8


 210 0048 00000000 		.word	.LANCHOR0
 211 004c 02000020 		.word	536870914
 212 0050 30003A40 		.word	1077542960
 213 0054 00003A40 		.word	1077542912
 214              		.cfi_endproc
 215              	.LFE2:
 216              		.size	ADC_1_Wakeup, .-ADC_1_Wakeup
 217              		.section	.text.ADC_1_SaveConfig,"ax",%progbits
 218              		.align	2
 219              		.global	ADC_1_SaveConfig
 220              		.code	16
 221              		.thumb_func
 222              		.type	ADC_1_SaveConfig, %function
 223              	ADC_1_SaveConfig:
 224              	.LFB3:
 190:Generated_Source\PSoC4/ADC_1_PM.c **** 
 191:Generated_Source\PSoC4/ADC_1_PM.c **** /* ****************************************************************************
 192:Generated_Source\PSoC4/ADC_1_PM.c **** * Function Name: ADC_1_SaveConfig
 193:Generated_Source\PSoC4/ADC_1_PM.c **** ****************************************************************************//*
 194:Generated_Source\PSoC4/ADC_1_PM.c **** *
 195:Generated_Source\PSoC4/ADC_1_PM.c **** * \brief Saves the current configuration of ADC_1 non-retention registers.
 196:Generated_Source\PSoC4/ADC_1_PM.c **** *
 197:Generated_Source\PSoC4/ADC_1_PM.c **** * \param None
 198:Generated_Source\PSoC4/ADC_1_PM.c **** * 
 199:Generated_Source\PSoC4/ADC_1_PM.c **** * \return None
 200:Generated_Source\PSoC4/ADC_1_PM.c **** * 
 201:Generated_Source\PSoC4/ADC_1_PM.c **** * \sideeffect None
 202:Generated_Source\PSoC4/ADC_1_PM.c **** *
 203:Generated_Source\PSoC4/ADC_1_PM.c **** * <b>Code Snippet</b>
 204:Generated_Source\PSoC4/ADC_1_PM.c **** *  \snippet main.c snippet_ADC_1_SaveConfig
 205:Generated_Source\PSoC4/ADC_1_PM.c **** *
 206:Generated_Source\PSoC4/ADC_1_PM.c **** * 
 207:Generated_Source\PSoC4/ADC_1_PM.c **** *******************************************************************************/
 208:Generated_Source\PSoC4/ADC_1_PM.c **** void ADC_1_SaveConfig(void)
 209:Generated_Source\PSoC4/ADC_1_PM.c **** {
 225              		.loc 1 209 0
 226              		.cfi_startproc
 227              		@ args = 0, pretend = 0, frame = 0
 228              		@ frame_needed = 0, uses_anonymous_args = 0
 229              		@ link register save eliminated.
 210:Generated_Source\PSoC4/ADC_1_PM.c ****      /* All configuration registers are marked as [reset_all_retention] */
 211:Generated_Source\PSoC4/ADC_1_PM.c **** }
 230              		.loc 1 211 0
 231              		@ sp needed
 232 0000 7047     		bx	lr
 233              		.cfi_endproc
 234              	.LFE3:
 235              		.size	ADC_1_SaveConfig, .-ADC_1_SaveConfig
 236 0002 C046     		.section	.text.ADC_1_RestoreConfig,"ax",%progbits
 237              		.align	2
 238              		.global	ADC_1_RestoreConfig
 239              		.code	16
 240              		.thumb_func
 241              		.type	ADC_1_RestoreConfig, %function
 242              	ADC_1_RestoreConfig:
 243              	.LFB4:
 212:Generated_Source\PSoC4/ADC_1_PM.c **** 
ARM GAS  C:\Users\nbutts\AppData\Local\Temp\ccpJOgy8.s 			page 9


 213:Generated_Source\PSoC4/ADC_1_PM.c **** /* ****************************************************************************
 214:Generated_Source\PSoC4/ADC_1_PM.c **** * Function Name: ADC_1_RestoreConfig
 215:Generated_Source\PSoC4/ADC_1_PM.c **** ****************************************************************************//*
 216:Generated_Source\PSoC4/ADC_1_PM.c **** *
 217:Generated_Source\PSoC4/ADC_1_PM.c **** * \brief Restores the configuration of ADC_1 non-retention registers.
 218:Generated_Source\PSoC4/ADC_1_PM.c **** * 
 219:Generated_Source\PSoC4/ADC_1_PM.c **** * \param None
 220:Generated_Source\PSoC4/ADC_1_PM.c **** * 
 221:Generated_Source\PSoC4/ADC_1_PM.c **** * \return None
 222:Generated_Source\PSoC4/ADC_1_PM.c **** *
 223:Generated_Source\PSoC4/ADC_1_PM.c **** * \sideeffect Calling this function without previously calling 
 224:Generated_Source\PSoC4/ADC_1_PM.c **** * ADC_1_SaveConfig() or ADC_1_Sleep will lead to 
 225:Generated_Source\PSoC4/ADC_1_PM.c **** * unpredictable results.
 226:Generated_Source\PSoC4/ADC_1_PM.c **** *
 227:Generated_Source\PSoC4/ADC_1_PM.c **** * <b>Code Snippet</b>
 228:Generated_Source\PSoC4/ADC_1_PM.c **** *  \snippet main.c snippet_ADC_1_RestoreConfig
 229:Generated_Source\PSoC4/ADC_1_PM.c **** *
 230:Generated_Source\PSoC4/ADC_1_PM.c **** * 
 231:Generated_Source\PSoC4/ADC_1_PM.c **** *******************************************************************************/
 232:Generated_Source\PSoC4/ADC_1_PM.c **** void ADC_1_RestoreConfig(void)
 233:Generated_Source\PSoC4/ADC_1_PM.c **** {
 244              		.loc 1 233 0
 245              		.cfi_startproc
 246              		@ args = 0, pretend = 0, frame = 0
 247              		@ frame_needed = 0, uses_anonymous_args = 0
 248              		@ link register save eliminated.
 234:Generated_Source\PSoC4/ADC_1_PM.c ****     /* All configuration registers are marked as [reset_all_retention] */
 235:Generated_Source\PSoC4/ADC_1_PM.c **** }
 249              		.loc 1 235 0
 250              		@ sp needed
 251 0000 7047     		bx	lr
 252              		.cfi_endproc
 253              	.LFE4:
 254              		.size	ADC_1_RestoreConfig, .-ADC_1_RestoreConfig
 255 0002 C046     		.bss
 256              		.align	2
 257              		.set	.LANCHOR0,. + 0
 258              		.type	ADC_1_backup, %object
 259              		.size	ADC_1_backup, 1
 260              	ADC_1_backup:
 261 0000 00       		.space	1
 262              		.text
 263              	.Letext0:
 264              		.file 2 "Generated_Source\\PSoC4\\cytypes.h"
 265              		.file 3 "Generated_Source\\PSoC4\\ADC_1.h"