ARM GAS  C:\Users\nbutts\AppData\Local\Temp\ccrYYXbt.s 			page 1


   1              		.syntax unified
   2              		.cpu cortex-m0plus
   3              		.fpu softvfp
   4              		.eabi_attribute 20, 1
   5              		.eabi_attribute 21, 1
   6              		.eabi_attribute 23, 3
   7              		.eabi_attribute 24, 1
   8              		.eabi_attribute 25, 1
   9              		.eabi_attribute 26, 1
  10              		.eabi_attribute 30, 1
  11              		.eabi_attribute 34, 0
  12              		.eabi_attribute 18, 4
  13              		.thumb
  14              		.syntax unified
  15              		.file	"cy_em_eeprom.c"
  16              		.text
  17              	.Ltext0:
  18              		.cfi_sections	.debug_frame
  19              		.section	.text.FindLastWrittenRow,"ax",%progbits
  20              		.align	2
  21              		.code	16
  22              		.thumb_func
  23              		.type	FindLastWrittenRow, %function
  24              	FindLastWrittenRow:
  25              	.LFB6:
  26              		.file 1 "Generated_Source\\PSoC4\\cy_em_eeprom.c"
   1:Generated_Source\PSoC4/cy_em_eeprom.c **** /***************************************************************************//**
   2:Generated_Source\PSoC4/cy_em_eeprom.c **** * \file cy_em_eeprom.c
   3:Generated_Source\PSoC4/cy_em_eeprom.c **** * \version 2.0
   4:Generated_Source\PSoC4/cy_em_eeprom.c **** *
   5:Generated_Source\PSoC4/cy_em_eeprom.c **** * \brief
   6:Generated_Source\PSoC4/cy_em_eeprom.c **** *  This file provides source code of the API for the Emulated EEPROM library.
   7:Generated_Source\PSoC4/cy_em_eeprom.c **** *  The Emulated EEPROM API allows creating of an emulated EEPROM in flash that
   8:Generated_Source\PSoC4/cy_em_eeprom.c **** *  has the ability to do wear leveling and restore corrupted data from a
   9:Generated_Source\PSoC4/cy_em_eeprom.c **** *  redundant copy.
  10:Generated_Source\PSoC4/cy_em_eeprom.c **** *
  11:Generated_Source\PSoC4/cy_em_eeprom.c **** ********************************************************************************
  12:Generated_Source\PSoC4/cy_em_eeprom.c **** * \copyright
  13:Generated_Source\PSoC4/cy_em_eeprom.c **** * Copyright 2017, Cypress Semiconductor Corporation.  All rights reserved.
  14:Generated_Source\PSoC4/cy_em_eeprom.c **** * You may use this file only in accordance with the license, terms, conditions,
  15:Generated_Source\PSoC4/cy_em_eeprom.c **** * disclaimers, and limitations in the end user license agreement accompanying
  16:Generated_Source\PSoC4/cy_em_eeprom.c **** * the software package with which this file was provided.
  17:Generated_Source\PSoC4/cy_em_eeprom.c **** *******************************************************************************/
  18:Generated_Source\PSoC4/cy_em_eeprom.c **** 
  19:Generated_Source\PSoC4/cy_em_eeprom.c **** 
  20:Generated_Source\PSoC4/cy_em_eeprom.c **** #include "cytypes.h"
  21:Generated_Source\PSoC4/cy_em_eeprom.c **** #include <string.h>
  22:Generated_Source\PSoC4/cy_em_eeprom.c **** 
  23:Generated_Source\PSoC4/cy_em_eeprom.c **** #if (CYDEV_CHIP_FAMILY_USED == CYDEV_CHIP_FAMILY_PSOC6)
  24:Generated_Source\PSoC4/cy_em_eeprom.c ****     #include "em_eeprom/cy_em_eeprom.h"
  25:Generated_Source\PSoC4/cy_em_eeprom.c **** #else
  26:Generated_Source\PSoC4/cy_em_eeprom.c ****     #include "cy_em_eeprom.h"
  27:Generated_Source\PSoC4/cy_em_eeprom.c **** #endif /* (CYDEV_CHIP_FAMILY_USED == CYDEV_CHIP_FAMILY_PSOC6) */
  28:Generated_Source\PSoC4/cy_em_eeprom.c **** 
  29:Generated_Source\PSoC4/cy_em_eeprom.c **** 
  30:Generated_Source\PSoC4/cy_em_eeprom.c **** #if defined(__cplusplus)
  31:Generated_Source\PSoC4/cy_em_eeprom.c **** extern "C" {
ARM GAS  C:\Users\nbutts\AppData\Local\Temp\ccrYYXbt.s 			page 2


  32:Generated_Source\PSoC4/cy_em_eeprom.c **** #endif
  33:Generated_Source\PSoC4/cy_em_eeprom.c **** 
  34:Generated_Source\PSoC4/cy_em_eeprom.c **** 
  35:Generated_Source\PSoC4/cy_em_eeprom.c **** /***************************************
  36:Generated_Source\PSoC4/cy_em_eeprom.c **** * Private Function Prototypes
  37:Generated_Source\PSoC4/cy_em_eeprom.c **** ***************************************/
  38:Generated_Source\PSoC4/cy_em_eeprom.c **** static void FindLastWrittenRow(uint32 * lastWrRowPtr, cy_stc_eeprom_context_t * context);
  39:Generated_Source\PSoC4/cy_em_eeprom.c **** static uint32 GetRowAddrBySeqNum(uint32 seqNum, cy_stc_eeprom_context_t * context);
  40:Generated_Source\PSoC4/cy_em_eeprom.c **** static uint8 CalcChecksum(uint8 rowData[], uint32 len);
  41:Generated_Source\PSoC4/cy_em_eeprom.c **** static void GetNextRowToWrite(uint32 seqNum,
  42:Generated_Source\PSoC4/cy_em_eeprom.c ****         uint32 * rowToWrPtr, uint32 * rowToRdPtr, cy_stc_eeprom_context_t * context);
  43:Generated_Source\PSoC4/cy_em_eeprom.c **** static cy_en_em_eeprom_status_t CheckRanges(cy_stc_eeprom_config_t* config);
  44:Generated_Source\PSoC4/cy_em_eeprom.c **** static cy_en_em_eeprom_status_t WriteRow(uint32 rowAddr, uint32 *rowData, cy_stc_eeprom_context_t *
  45:Generated_Source\PSoC4/cy_em_eeprom.c **** static cy_en_em_eeprom_status_t EraseRow(uint32 rowAddr, uint32 ramBuffAddr, cy_stc_eeprom_context_
  46:Generated_Source\PSoC4/cy_em_eeprom.c **** static cy_en_em_eeprom_status_t CheckCrcAndCopy(uint32 startAddr,
  47:Generated_Source\PSoC4/cy_em_eeprom.c ****     uint32 dstAddr, uint32 rowOffset, uint32 numBytes, cy_stc_eeprom_context_t * context);
  48:Generated_Source\PSoC4/cy_em_eeprom.c **** static uint32 GetAddresses(uint32 *startAddr, uint32 *endAddr, uint32 *offset, uint32 rowNum, uint3
  49:Generated_Source\PSoC4/cy_em_eeprom.c **** 
  50:Generated_Source\PSoC4/cy_em_eeprom.c **** 
  51:Generated_Source\PSoC4/cy_em_eeprom.c **** /**
  52:Generated_Source\PSoC4/cy_em_eeprom.c **** * \addtogroup group_em_eeprom_functions
  53:Generated_Source\PSoC4/cy_em_eeprom.c **** * \{
  54:Generated_Source\PSoC4/cy_em_eeprom.c **** */
  55:Generated_Source\PSoC4/cy_em_eeprom.c **** 
  56:Generated_Source\PSoC4/cy_em_eeprom.c **** /*******************************************************************************
  57:Generated_Source\PSoC4/cy_em_eeprom.c **** * Function Name: Cy_Em_EEPROM_Init
  58:Generated_Source\PSoC4/cy_em_eeprom.c **** ****************************************************************************//**
  59:Generated_Source\PSoC4/cy_em_eeprom.c **** *
  60:Generated_Source\PSoC4/cy_em_eeprom.c **** * Initializes the Emulated EEPROM library.
  61:Generated_Source\PSoC4/cy_em_eeprom.c **** *
  62:Generated_Source\PSoC4/cy_em_eeprom.c **** * \param config
  63:Generated_Source\PSoC4/cy_em_eeprom.c **** * The pointer to a configuration structure. See \ref cy_stc_eeprom_config_t.
  64:Generated_Source\PSoC4/cy_em_eeprom.c **** *
  65:Generated_Source\PSoC4/cy_em_eeprom.c **** * \param context
  66:Generated_Source\PSoC4/cy_em_eeprom.c **** * The pointer to the EEPROM context structure \ref cy_stc_eeprom_context_t.
  67:Generated_Source\PSoC4/cy_em_eeprom.c **** *
  68:Generated_Source\PSoC4/cy_em_eeprom.c **** * \return
  69:Generated_Source\PSoC4/cy_em_eeprom.c **** * error / status code. See \ref cy_en_em_eeprom_status_t.
  70:Generated_Source\PSoC4/cy_em_eeprom.c **** *
  71:Generated_Source\PSoC4/cy_em_eeprom.c **** *******************************************************************************/
  72:Generated_Source\PSoC4/cy_em_eeprom.c **** cy_en_em_eeprom_status_t
  73:Generated_Source\PSoC4/cy_em_eeprom.c ****         Cy_Em_EEPROM_Init(cy_stc_eeprom_config_t* config, cy_stc_eeprom_context_t * context)
  74:Generated_Source\PSoC4/cy_em_eeprom.c **** {
  75:Generated_Source\PSoC4/cy_em_eeprom.c ****     cy_en_em_eeprom_status_t ret = CY_EM_EEPROM_BAD_PARAM;
  76:Generated_Source\PSoC4/cy_em_eeprom.c **** 
  77:Generated_Source\PSoC4/cy_em_eeprom.c ****     if((NULL != context) && (NULL != config) && (NULL != ((uint32 *)config->userFlashStartAddr)) &&
  78:Generated_Source\PSoC4/cy_em_eeprom.c ****         (config->wearLevelingFactor <= CY_EM_EEPROM_MAX_WEAR_LEVELING_FACTOR) && (config->eepromSiz
  79:Generated_Source\PSoC4/cy_em_eeprom.c ****     {
  80:Generated_Source\PSoC4/cy_em_eeprom.c ****         ret = CheckRanges(config);
  81:Generated_Source\PSoC4/cy_em_eeprom.c **** 
  82:Generated_Source\PSoC4/cy_em_eeprom.c ****         if(CY_EM_EEPROM_SUCCESS == ret)
  83:Generated_Source\PSoC4/cy_em_eeprom.c ****         {
  84:Generated_Source\PSoC4/cy_em_eeprom.c ****             /* Copy the user config structure fields into context */
  85:Generated_Source\PSoC4/cy_em_eeprom.c ****             context->eepromSize = config->eepromSize;
  86:Generated_Source\PSoC4/cy_em_eeprom.c ****             context->wearLevelingFactor = config->wearLevelingFactor;
  87:Generated_Source\PSoC4/cy_em_eeprom.c ****             context->redundantCopy = config->redundantCopy;
  88:Generated_Source\PSoC4/cy_em_eeprom.c ****             context->blockingWrite = config->blockingWrite;
ARM GAS  C:\Users\nbutts\AppData\Local\Temp\ccrYYXbt.s 			page 3


  89:Generated_Source\PSoC4/cy_em_eeprom.c ****             context->userFlashStartAddr = config->userFlashStartAddr;
  90:Generated_Source\PSoC4/cy_em_eeprom.c ****             /* Store frequently used data for internal use */
  91:Generated_Source\PSoC4/cy_em_eeprom.c ****             context->numberOfRows =  CY_EM_EEPROM_GET_NUM_ROWS_IN_EEPROM(config->eepromSize);
  92:Generated_Source\PSoC4/cy_em_eeprom.c ****             context->wlEndAddr = ((CY_EM_EEPROM_GET_EEPROM_SIZE(context->numberOfRows) * config->we
  93:Generated_Source\PSoC4/cy_em_eeprom.c ****                     config->userFlashStartAddr);
  94:Generated_Source\PSoC4/cy_em_eeprom.c ****             /* Find last written EEPROM row and store it for quick access */
  95:Generated_Source\PSoC4/cy_em_eeprom.c ****             FindLastWrittenRow(&context->lastWrRowAddr, context);
  96:Generated_Source\PSoC4/cy_em_eeprom.c ****         }
  97:Generated_Source\PSoC4/cy_em_eeprom.c ****     }
  98:Generated_Source\PSoC4/cy_em_eeprom.c **** 
  99:Generated_Source\PSoC4/cy_em_eeprom.c ****     return(ret);
 100:Generated_Source\PSoC4/cy_em_eeprom.c **** }
 101:Generated_Source\PSoC4/cy_em_eeprom.c **** 
 102:Generated_Source\PSoC4/cy_em_eeprom.c **** 
 103:Generated_Source\PSoC4/cy_em_eeprom.c **** /*******************************************************************************
 104:Generated_Source\PSoC4/cy_em_eeprom.c **** * Function Name: Cy_Em_EEPROM_Read
 105:Generated_Source\PSoC4/cy_em_eeprom.c **** ****************************************************************************//**
 106:Generated_Source\PSoC4/cy_em_eeprom.c **** *
 107:Generated_Source\PSoC4/cy_em_eeprom.c **** * This function takes the logical EEPROM address, converts it to the actual
 108:Generated_Source\PSoC4/cy_em_eeprom.c **** * physical address where the data is stored and returns the data to the user.
 109:Generated_Source\PSoC4/cy_em_eeprom.c **** *
 110:Generated_Source\PSoC4/cy_em_eeprom.c **** * \param addr
 111:Generated_Source\PSoC4/cy_em_eeprom.c **** * The logical start address in EEPROM to start reading data from.
 112:Generated_Source\PSoC4/cy_em_eeprom.c **** *
 113:Generated_Source\PSoC4/cy_em_eeprom.c **** * \param eepromData
 114:Generated_Source\PSoC4/cy_em_eeprom.c **** * The pointer to a user array to write data to.
 115:Generated_Source\PSoC4/cy_em_eeprom.c **** *
 116:Generated_Source\PSoC4/cy_em_eeprom.c **** * \param size
 117:Generated_Source\PSoC4/cy_em_eeprom.c **** * The amount of data to read.
 118:Generated_Source\PSoC4/cy_em_eeprom.c **** *
 119:Generated_Source\PSoC4/cy_em_eeprom.c **** * \param context
 120:Generated_Source\PSoC4/cy_em_eeprom.c **** * The pointer to the EEPROM context structure \ref cy_stc_eeprom_context_t.
 121:Generated_Source\PSoC4/cy_em_eeprom.c **** *
 122:Generated_Source\PSoC4/cy_em_eeprom.c **** * \return
 123:Generated_Source\PSoC4/cy_em_eeprom.c **** * This function returns \ref cy_en_em_eeprom_status_t.
 124:Generated_Source\PSoC4/cy_em_eeprom.c **** *
 125:Generated_Source\PSoC4/cy_em_eeprom.c **** * \note
 126:Generated_Source\PSoC4/cy_em_eeprom.c **** * This function uses a buffer of the flash row size to perform read
 127:Generated_Source\PSoC4/cy_em_eeprom.c **** * operation. For the size of the row refer to the specific PSoC device
 128:Generated_Source\PSoC4/cy_em_eeprom.c **** * datasheet.
 129:Generated_Source\PSoC4/cy_em_eeprom.c **** *
 130:Generated_Source\PSoC4/cy_em_eeprom.c **** * In case in if redundant copy option is enabled the function may perform writes
 131:Generated_Source\PSoC4/cy_em_eeprom.c **** * to EEPROM. This is done in case if the data in the EEPPROM is corrupted and
 132:Generated_Source\PSoC4/cy_em_eeprom.c **** * the data in redundant copy is valid based on CRC-8 data integrity check.
 133:Generated_Source\PSoC4/cy_em_eeprom.c **** *
 134:Generated_Source\PSoC4/cy_em_eeprom.c **** *******************************************************************************/
 135:Generated_Source\PSoC4/cy_em_eeprom.c **** cy_en_em_eeprom_status_t
 136:Generated_Source\PSoC4/cy_em_eeprom.c ****     Cy_Em_EEPROM_Read(uint32 addr, void * eepromData, uint32 size, cy_stc_eeprom_context_t * contex
 137:Generated_Source\PSoC4/cy_em_eeprom.c **** {
 138:Generated_Source\PSoC4/cy_em_eeprom.c ****     cy_en_em_eeprom_status_t ret = CY_EM_EEPROM_BAD_PARAM;
 139:Generated_Source\PSoC4/cy_em_eeprom.c ****     uint32 i;
 140:Generated_Source\PSoC4/cy_em_eeprom.c ****     uint32 numBytesToRead;
 141:Generated_Source\PSoC4/cy_em_eeprom.c ****     uint32 curEepromBaseAddr;
 142:Generated_Source\PSoC4/cy_em_eeprom.c ****     uint32 curRowOffset;
 143:Generated_Source\PSoC4/cy_em_eeprom.c ****     uint32 startRowAddr;
 144:Generated_Source\PSoC4/cy_em_eeprom.c ****     uint32 actEepromRowNum;
 145:Generated_Source\PSoC4/cy_em_eeprom.c ****     uint32 curRdEepromRowNum = 0u;
ARM GAS  C:\Users\nbutts\AppData\Local\Temp\ccrYYXbt.s 			page 4


 146:Generated_Source\PSoC4/cy_em_eeprom.c ****     uint32 dataStartEepromRowNum = 0u;
 147:Generated_Source\PSoC4/cy_em_eeprom.c ****     uint32 eeData = (uint32) eepromData; /* To avoid the pointer arithmetic with void */
 148:Generated_Source\PSoC4/cy_em_eeprom.c **** 
 149:Generated_Source\PSoC4/cy_em_eeprom.c ****     /* Validate input parameters */
 150:Generated_Source\PSoC4/cy_em_eeprom.c ****     if((0u != size) && ((addr + size) <= (context->eepromSize)) && (NULL != eepromData))
 151:Generated_Source\PSoC4/cy_em_eeprom.c ****     {
 152:Generated_Source\PSoC4/cy_em_eeprom.c ****         uint32 rdAddr = addr;
 153:Generated_Source\PSoC4/cy_em_eeprom.c ****         uint32 rdSize = size;
 154:Generated_Source\PSoC4/cy_em_eeprom.c ****         /* Get the sequence number of the last written row */
 155:Generated_Source\PSoC4/cy_em_eeprom.c ****         uint32 seqNum = CY_GET_REG32(context->lastWrRowAddr);
 156:Generated_Source\PSoC4/cy_em_eeprom.c **** 
 157:Generated_Source\PSoC4/cy_em_eeprom.c ****         if(0u != seqNum)
 158:Generated_Source\PSoC4/cy_em_eeprom.c ****         {
 159:Generated_Source\PSoC4/cy_em_eeprom.c ****             uint32 updateAddrFlag = 0u;
 160:Generated_Source\PSoC4/cy_em_eeprom.c **** 
 161:Generated_Source\PSoC4/cy_em_eeprom.c ****             /* Calculate the number of the row read operations. Currently this only concerns
 162:Generated_Source\PSoC4/cy_em_eeprom.c ****             * the reads from the EEPROM data locations.
 163:Generated_Source\PSoC4/cy_em_eeprom.c ****             */
 164:Generated_Source\PSoC4/cy_em_eeprom.c ****             uint32 numRowReads = ((((rdAddr + rdSize) - 1u) / CY_EM_EEPROM_EEPROM_DATA_LEN) -
 165:Generated_Source\PSoC4/cy_em_eeprom.c ****                                   (rdAddr / CY_EM_EEPROM_EEPROM_DATA_LEN)) + 1u;
 166:Generated_Source\PSoC4/cy_em_eeprom.c **** 
 167:Generated_Source\PSoC4/cy_em_eeprom.c ****             /* Get the address of the first row of the currently active EEPROM sector. If
 168:Generated_Source\PSoC4/cy_em_eeprom.c ****             * no wear leveling is used - the EEPROM has only one sector, so use the base
 169:Generated_Source\PSoC4/cy_em_eeprom.c ****             * addr stored in "context->userFlashStartAddr".
 170:Generated_Source\PSoC4/cy_em_eeprom.c ****             */
 171:Generated_Source\PSoC4/cy_em_eeprom.c ****             curEepromBaseAddr = (((context->lastWrRowAddr - context->userFlashStartAddr) /
 172:Generated_Source\PSoC4/cy_em_eeprom.c ****                                   (CY_EM_EEPROM_FLASH_SIZEOF_ROW * context->numberOfRows)) *
 173:Generated_Source\PSoC4/cy_em_eeprom.c ****                                   (CY_EM_EEPROM_FLASH_SIZEOF_ROW * context->numberOfRows)) +
 174:Generated_Source\PSoC4/cy_em_eeprom.c ****                                    context->userFlashStartAddr;
 175:Generated_Source\PSoC4/cy_em_eeprom.c **** 
 176:Generated_Source\PSoC4/cy_em_eeprom.c ****             /* Find the number of the row that contains the start address of the data */
 177:Generated_Source\PSoC4/cy_em_eeprom.c ****             for(i = 0u; i < context->numberOfRows; i++)
 178:Generated_Source\PSoC4/cy_em_eeprom.c ****             {
 179:Generated_Source\PSoC4/cy_em_eeprom.c ****                 if(0u != CY_EM_EEPROM_IS_ADDR_IN_ROW_RANGE(rdAddr, i))
 180:Generated_Source\PSoC4/cy_em_eeprom.c ****                 {
 181:Generated_Source\PSoC4/cy_em_eeprom.c ****                     dataStartEepromRowNum = i;
 182:Generated_Source\PSoC4/cy_em_eeprom.c ****                     curRdEepromRowNum = dataStartEepromRowNum;
 183:Generated_Source\PSoC4/cy_em_eeprom.c ****                     break;
 184:Generated_Source\PSoC4/cy_em_eeprom.c ****                 }
 185:Generated_Source\PSoC4/cy_em_eeprom.c ****             }
 186:Generated_Source\PSoC4/cy_em_eeprom.c **** 
 187:Generated_Source\PSoC4/cy_em_eeprom.c ****             /* Find the row number of the last written row */
 188:Generated_Source\PSoC4/cy_em_eeprom.c ****             actEepromRowNum = (context->lastWrRowAddr - curEepromBaseAddr) / CY_EM_EEPROM_FLASH_SIZ
 189:Generated_Source\PSoC4/cy_em_eeprom.c **** 
 190:Generated_Source\PSoC4/cy_em_eeprom.c ****             /* Check if wear leveling is used */
 191:Generated_Source\PSoC4/cy_em_eeprom.c ****             if(context->wearLevelingFactor > 1u)
 192:Generated_Source\PSoC4/cy_em_eeprom.c ****             {
 193:Generated_Source\PSoC4/cy_em_eeprom.c ****                 uint32 dataEndEepromRowNum = dataStartEepromRowNum + (numRowReads - 1u);
 194:Generated_Source\PSoC4/cy_em_eeprom.c **** 
 195:Generated_Source\PSoC4/cy_em_eeprom.c ****                 /* Check if the future validation of the read address is required. */
 196:Generated_Source\PSoC4/cy_em_eeprom.c ****                 updateAddrFlag = (dataStartEepromRowNum > actEepromRowNum) ? 1u :
 197:Generated_Source\PSoC4/cy_em_eeprom.c ****                                   ((dataEndEepromRowNum > actEepromRowNum) ? 1u : 0u);
 198:Generated_Source\PSoC4/cy_em_eeprom.c ****             }
 199:Generated_Source\PSoC4/cy_em_eeprom.c **** 
 200:Generated_Source\PSoC4/cy_em_eeprom.c ****             /* Copy data from the EEPROM data locations to the user buffer */
 201:Generated_Source\PSoC4/cy_em_eeprom.c ****             for(i = 0u; i < numRowReads; i++)
 202:Generated_Source\PSoC4/cy_em_eeprom.c ****             {
ARM GAS  C:\Users\nbutts\AppData\Local\Temp\ccrYYXbt.s 			page 5


 203:Generated_Source\PSoC4/cy_em_eeprom.c ****                 startRowAddr = curEepromBaseAddr + (curRdEepromRowNum * CY_EM_EEPROM_FLASH_SIZEOF_R
 204:Generated_Source\PSoC4/cy_em_eeprom.c ****                 curRowOffset = CY_EM_EEPROM_EEPROM_DATA_LEN + (rdAddr % CY_EM_EEPROM_EEPROM_DATA_LE
 205:Generated_Source\PSoC4/cy_em_eeprom.c **** 
 206:Generated_Source\PSoC4/cy_em_eeprom.c ****                 /* Check if there are more reads pending and update the number of the
 207:Generated_Source\PSoC4/cy_em_eeprom.c ****                 * remaining bytes to read respectively.
 208:Generated_Source\PSoC4/cy_em_eeprom.c ****                 */
 209:Generated_Source\PSoC4/cy_em_eeprom.c ****                 if((i + 1u) < numRowReads)
 210:Generated_Source\PSoC4/cy_em_eeprom.c ****                 {
 211:Generated_Source\PSoC4/cy_em_eeprom.c ****                     numBytesToRead = CY_EM_EEPROM_EEPROM_DATA_LEN - (rdAddr % CY_EM_EEPROM_EEPROM_D
 212:Generated_Source\PSoC4/cy_em_eeprom.c ****                 }
 213:Generated_Source\PSoC4/cy_em_eeprom.c ****                 else
 214:Generated_Source\PSoC4/cy_em_eeprom.c ****                 {
 215:Generated_Source\PSoC4/cy_em_eeprom.c ****                     numBytesToRead = rdSize;
 216:Generated_Source\PSoC4/cy_em_eeprom.c ****                 }
 217:Generated_Source\PSoC4/cy_em_eeprom.c **** 
 218:Generated_Source\PSoC4/cy_em_eeprom.c ****                 /* Check if the read address needs to be updated to point to the correct
 219:Generated_Source\PSoC4/cy_em_eeprom.c ****                 * EEPROM sector.
 220:Generated_Source\PSoC4/cy_em_eeprom.c ****                 */
 221:Generated_Source\PSoC4/cy_em_eeprom.c ****                 if((0u != updateAddrFlag) && (curRdEepromRowNum > actEepromRowNum))
 222:Generated_Source\PSoC4/cy_em_eeprom.c ****                 {
 223:Generated_Source\PSoC4/cy_em_eeprom.c ****                     startRowAddr -= context->numberOfRows * CY_EM_EEPROM_FLASH_SIZEOF_ROW;
 224:Generated_Source\PSoC4/cy_em_eeprom.c **** 
 225:Generated_Source\PSoC4/cy_em_eeprom.c ****                     if(startRowAddr < context->userFlashStartAddr)
 226:Generated_Source\PSoC4/cy_em_eeprom.c ****                     {
 227:Generated_Source\PSoC4/cy_em_eeprom.c ****                         startRowAddr = context->wlEndAddr -
 228:Generated_Source\PSoC4/cy_em_eeprom.c ****                             ((context->numberOfRows - curRdEepromRowNum) * CY_EM_EEPROM_FLASH_SIZEO
 229:Generated_Source\PSoC4/cy_em_eeprom.c ****                     }
 230:Generated_Source\PSoC4/cy_em_eeprom.c ****                 }
 231:Generated_Source\PSoC4/cy_em_eeprom.c **** 
 232:Generated_Source\PSoC4/cy_em_eeprom.c ****                 if(0u != context->redundantCopy)
 233:Generated_Source\PSoC4/cy_em_eeprom.c ****                 {
 234:Generated_Source\PSoC4/cy_em_eeprom.c ****                     /* Check a checksum of the EEPROM row and if it is bad, check a checksum in
 235:Generated_Source\PSoC4/cy_em_eeprom.c ****                     * the corresponding row in redundant copy, otherwise return failure.
 236:Generated_Source\PSoC4/cy_em_eeprom.c ****                     */
 237:Generated_Source\PSoC4/cy_em_eeprom.c ****                     ret = CheckCrcAndCopy(startRowAddr, eeData, curRowOffset, numBytesToRead, conte
 238:Generated_Source\PSoC4/cy_em_eeprom.c **** 
 239:Generated_Source\PSoC4/cy_em_eeprom.c ****                     if(CY_EM_EEPROM_SUCCESS != ret)
 240:Generated_Source\PSoC4/cy_em_eeprom.c ****                     {
 241:Generated_Source\PSoC4/cy_em_eeprom.c ****                         break;
 242:Generated_Source\PSoC4/cy_em_eeprom.c ****                     }
 243:Generated_Source\PSoC4/cy_em_eeprom.c ****                 }
 244:Generated_Source\PSoC4/cy_em_eeprom.c ****                 else
 245:Generated_Source\PSoC4/cy_em_eeprom.c ****                 {
 246:Generated_Source\PSoC4/cy_em_eeprom.c ****                     /* Copy the data to the user buffer */
 247:Generated_Source\PSoC4/cy_em_eeprom.c ****                     (void)memcpy((void *)(eeData),
 248:Generated_Source\PSoC4/cy_em_eeprom.c ****                                  (void *)(startRowAddr + curRowOffset),
 249:Generated_Source\PSoC4/cy_em_eeprom.c ****                                  numBytesToRead);
 250:Generated_Source\PSoC4/cy_em_eeprom.c **** 
 251:Generated_Source\PSoC4/cy_em_eeprom.c ****                     /* Indicate success to be able to execute next code block */
 252:Generated_Source\PSoC4/cy_em_eeprom.c ****                     ret = CY_EM_EEPROM_SUCCESS;
 253:Generated_Source\PSoC4/cy_em_eeprom.c ****                 }
 254:Generated_Source\PSoC4/cy_em_eeprom.c **** 
 255:Generated_Source\PSoC4/cy_em_eeprom.c ****                 /* Update variables anticipated in the read operation */
 256:Generated_Source\PSoC4/cy_em_eeprom.c ****                 rdAddr += numBytesToRead;
 257:Generated_Source\PSoC4/cy_em_eeprom.c ****                 rdSize -= numBytesToRead;
 258:Generated_Source\PSoC4/cy_em_eeprom.c ****                 eeData += numBytesToRead;
 259:Generated_Source\PSoC4/cy_em_eeprom.c ****                 curRdEepromRowNum++;
ARM GAS  C:\Users\nbutts\AppData\Local\Temp\ccrYYXbt.s 			page 6


 260:Generated_Source\PSoC4/cy_em_eeprom.c ****             }
 261:Generated_Source\PSoC4/cy_em_eeprom.c **** 
 262:Generated_Source\PSoC4/cy_em_eeprom.c ****             /* This code block will copy the latest data from the EEPROM headers into the
 263:Generated_Source\PSoC4/cy_em_eeprom.c ****             * user buffer. The data previously copied into the user buffer may be updated
 264:Generated_Source\PSoC4/cy_em_eeprom.c ****             * as the EEPROM headers contain more recent data.
 265:Generated_Source\PSoC4/cy_em_eeprom.c ****             */
 266:Generated_Source\PSoC4/cy_em_eeprom.c ****             if(CY_EM_EEPROM_SUCCESS == ret)
 267:Generated_Source\PSoC4/cy_em_eeprom.c ****             {
 268:Generated_Source\PSoC4/cy_em_eeprom.c ****                 numRowReads = context->numberOfRows - 1u;
 269:Generated_Source\PSoC4/cy_em_eeprom.c **** 
 270:Generated_Source\PSoC4/cy_em_eeprom.c ****                 for(i = (seqNum - numRowReads); i <= seqNum; i++)
 271:Generated_Source\PSoC4/cy_em_eeprom.c ****                 {
 272:Generated_Source\PSoC4/cy_em_eeprom.c ****                     startRowAddr = GetRowAddrBySeqNum(i, context);
 273:Generated_Source\PSoC4/cy_em_eeprom.c ****                     
 274:Generated_Source\PSoC4/cy_em_eeprom.c ****                     if (0u != startRowAddr)
 275:Generated_Source\PSoC4/cy_em_eeprom.c ****                     {
 276:Generated_Source\PSoC4/cy_em_eeprom.c ****                         /* The following variables are introduced to increase code readability. */
 277:Generated_Source\PSoC4/cy_em_eeprom.c ****                         uint32 startAddr  = *(uint32 *)(startRowAddr + CY_EM_EEPROM_HEADER_ADDR_OFF
 278:Generated_Source\PSoC4/cy_em_eeprom.c ****                         uint32 endAddr    = startAddr + (*(uint32 *)(startRowAddr + CY_EM_EEPROM_HE
 279:Generated_Source\PSoC4/cy_em_eeprom.c **** 
 280:Generated_Source\PSoC4/cy_em_eeprom.c ****                         /* Check if the current row EEPROM header contains the data requested for r
 281:Generated_Source\PSoC4/cy_em_eeprom.c ****                         if(0u != CY_EM_EEPROM_IS_ADDRESES_CROSSING(startAddr, endAddr, addr, addr +
 282:Generated_Source\PSoC4/cy_em_eeprom.c ****                         {
 283:Generated_Source\PSoC4/cy_em_eeprom.c ****                             rdAddr = (startAddr > addr) ? (startAddr) : (addr);
 284:Generated_Source\PSoC4/cy_em_eeprom.c **** 
 285:Generated_Source\PSoC4/cy_em_eeprom.c ****                             /* Calculate the number of bytes to be read from the current row's EEPR
 286:Generated_Source\PSoC4/cy_em_eeprom.c ****                             numBytesToRead = ((endAddr < (addr + size)) ? endAddr : (addr + size)) 
 287:Generated_Source\PSoC4/cy_em_eeprom.c **** 
 288:Generated_Source\PSoC4/cy_em_eeprom.c ****                             /* Calculate the offset in the user buffer from which the data will be 
 289:Generated_Source\PSoC4/cy_em_eeprom.c ****                             eeData = ((uint32)eepromData) + (rdAddr - addr);
 290:Generated_Source\PSoC4/cy_em_eeprom.c **** 
 291:Generated_Source\PSoC4/cy_em_eeprom.c ****                             /* Check a checksum of the EEPROM row and if it is bad, check a checksu
 292:Generated_Source\PSoC4/cy_em_eeprom.c ****                             * corresponding row in redundant copy, otherwise return failure. Copy t
 293:Generated_Source\PSoC4/cy_em_eeprom.c ****                             * from the recent EEPROM headers to the user buffer. This will overwrit
 294:Generated_Source\PSoC4/cy_em_eeprom.c ****                             * data copied form EEPROM data locations as the data in EEPROM headers 
 295:Generated_Source\PSoC4/cy_em_eeprom.c ****                             */
 296:Generated_Source\PSoC4/cy_em_eeprom.c ****                             if(0u != context->redundantCopy)
 297:Generated_Source\PSoC4/cy_em_eeprom.c ****                             {
 298:Generated_Source\PSoC4/cy_em_eeprom.c ****                                 ret = CheckCrcAndCopy(startRowAddr, eeData,
 299:Generated_Source\PSoC4/cy_em_eeprom.c ****                                                       CY_EM_EEPROM_HEADER_DATA_OFFSET, numBytesToRe
 300:Generated_Source\PSoC4/cy_em_eeprom.c **** 
 301:Generated_Source\PSoC4/cy_em_eeprom.c ****                                 if(CY_EM_EEPROM_SUCCESS != ret)
 302:Generated_Source\PSoC4/cy_em_eeprom.c ****                                 {
 303:Generated_Source\PSoC4/cy_em_eeprom.c ****                                     break;
 304:Generated_Source\PSoC4/cy_em_eeprom.c ****                                 }
 305:Generated_Source\PSoC4/cy_em_eeprom.c ****                             }
 306:Generated_Source\PSoC4/cy_em_eeprom.c ****                             else
 307:Generated_Source\PSoC4/cy_em_eeprom.c ****                             {
 308:Generated_Source\PSoC4/cy_em_eeprom.c ****                                 (void)memcpy((void *)(eeData),
 309:Generated_Source\PSoC4/cy_em_eeprom.c ****                                              (void *)(startRowAddr + CY_EM_EEPROM_HEADER_DATA_OFFSE
 310:Generated_Source\PSoC4/cy_em_eeprom.c ****                                              numBytesToRead);
 311:Generated_Source\PSoC4/cy_em_eeprom.c ****                             }
 312:Generated_Source\PSoC4/cy_em_eeprom.c ****                         }
 313:Generated_Source\PSoC4/cy_em_eeprom.c ****                     }
 314:Generated_Source\PSoC4/cy_em_eeprom.c ****                 }
 315:Generated_Source\PSoC4/cy_em_eeprom.c ****             }
 316:Generated_Source\PSoC4/cy_em_eeprom.c ****         }
ARM GAS  C:\Users\nbutts\AppData\Local\Temp\ccrYYXbt.s 			page 7


 317:Generated_Source\PSoC4/cy_em_eeprom.c ****         else
 318:Generated_Source\PSoC4/cy_em_eeprom.c ****         {
 319:Generated_Source\PSoC4/cy_em_eeprom.c ****             /* No records in the EEPROM */
 320:Generated_Source\PSoC4/cy_em_eeprom.c ****             ret = CY_EM_EEPROM_BAD_DATA;
 321:Generated_Source\PSoC4/cy_em_eeprom.c ****         }
 322:Generated_Source\PSoC4/cy_em_eeprom.c ****     }
 323:Generated_Source\PSoC4/cy_em_eeprom.c **** 
 324:Generated_Source\PSoC4/cy_em_eeprom.c ****     return(ret);
 325:Generated_Source\PSoC4/cy_em_eeprom.c **** }
 326:Generated_Source\PSoC4/cy_em_eeprom.c **** 
 327:Generated_Source\PSoC4/cy_em_eeprom.c **** 
 328:Generated_Source\PSoC4/cy_em_eeprom.c **** /*******************************************************************************
 329:Generated_Source\PSoC4/cy_em_eeprom.c **** * Function Name: Cy_Em_EEPROM_Write
 330:Generated_Source\PSoC4/cy_em_eeprom.c **** ****************************************************************************//**
 331:Generated_Source\PSoC4/cy_em_eeprom.c **** *
 332:Generated_Source\PSoC4/cy_em_eeprom.c **** * This function takes the logical EEPROM address and converts it to the actual
 333:Generated_Source\PSoC4/cy_em_eeprom.c **** * physical address and writes data there. If wear leveling is implemented, the
 334:Generated_Source\PSoC4/cy_em_eeprom.c **** * writing process will use the wear leveling techniques. This is a blocking
 335:Generated_Source\PSoC4/cy_em_eeprom.c **** * function and it does not return until the write operation is completed. The
 336:Generated_Source\PSoC4/cy_em_eeprom.c **** * user firmware should not enter Hibernate mode until write is completed. The
 337:Generated_Source\PSoC4/cy_em_eeprom.c **** * write operation is allowed in Sleep and Deep-Sleep modes. During the flash
 338:Generated_Source\PSoC4/cy_em_eeprom.c **** * operation, the device should not be reset, including the XRES pin, a software
 339:Generated_Source\PSoC4/cy_em_eeprom.c **** * reset, and watchdog reset sources. Also, low-voltage detect circuits should
 340:Generated_Source\PSoC4/cy_em_eeprom.c **** * be configured to generate an interrupt instead of a reset. Otherwise, portions
 341:Generated_Source\PSoC4/cy_em_eeprom.c **** * of flash may undergo unexpected changes.
 342:Generated_Source\PSoC4/cy_em_eeprom.c **** *
 343:Generated_Source\PSoC4/cy_em_eeprom.c **** * \param addr
 344:Generated_Source\PSoC4/cy_em_eeprom.c **** * The logical start address in EEPROM to start writing data from.
 345:Generated_Source\PSoC4/cy_em_eeprom.c **** *
 346:Generated_Source\PSoC4/cy_em_eeprom.c **** * \param eepromData
 347:Generated_Source\PSoC4/cy_em_eeprom.c **** * Data to write to EEPROM.
 348:Generated_Source\PSoC4/cy_em_eeprom.c **** *
 349:Generated_Source\PSoC4/cy_em_eeprom.c **** * \param size
 350:Generated_Source\PSoC4/cy_em_eeprom.c **** * The amount of data to write to EEPROM.
 351:Generated_Source\PSoC4/cy_em_eeprom.c **** *
 352:Generated_Source\PSoC4/cy_em_eeprom.c **** * \param context
 353:Generated_Source\PSoC4/cy_em_eeprom.c **** * The pointer to the EEPROM context structure \ref cy_stc_eeprom_context_t.
 354:Generated_Source\PSoC4/cy_em_eeprom.c **** *
 355:Generated_Source\PSoC4/cy_em_eeprom.c **** * \return
 356:Generated_Source\PSoC4/cy_em_eeprom.c **** * This function returns \ref cy_en_em_eeprom_status_t.
 357:Generated_Source\PSoC4/cy_em_eeprom.c **** *
 358:Generated_Source\PSoC4/cy_em_eeprom.c **** * \note
 359:Generated_Source\PSoC4/cy_em_eeprom.c **** * This function uses a buffer of the flash row size to perform write
 360:Generated_Source\PSoC4/cy_em_eeprom.c **** * operation. For the size of the row refer to the specific PSoC device
 361:Generated_Source\PSoC4/cy_em_eeprom.c **** * datasheet.
 362:Generated_Source\PSoC4/cy_em_eeprom.c **** *
 363:Generated_Source\PSoC4/cy_em_eeprom.c **** * \sideeffect
 364:Generated_Source\PSoC4/cy_em_eeprom.c **** * In case when blocking write option is used, if this function is called by
 365:Generated_Source\PSoC4/cy_em_eeprom.c **** * the CM4 the user code on CM0P and the user code on CM4 are blocked until erase
 366:Generated_Source\PSoC4/cy_em_eeprom.c **** * flash row operation is finished. If this function is called by the CM0P the
 367:Generated_Source\PSoC4/cy_em_eeprom.c **** * user code on CM4 is not blocked and the user code on CM0P is blocked until
 368:Generated_Source\PSoC4/cy_em_eeprom.c **** * erase flash row operation is finished. Plan your task allocation accordingly.
 369:Generated_Source\PSoC4/cy_em_eeprom.c **** *
 370:Generated_Source\PSoC4/cy_em_eeprom.c **** * In case if non-blocking write option is used and when user flash is used as
 371:Generated_Source\PSoC4/cy_em_eeprom.c **** * an EEPROM storage care should be taken to prevent the read while write (RWW)
 372:Generated_Source\PSoC4/cy_em_eeprom.c **** * exception. To prevent the RWW exception the user flash macro that includes
 373:Generated_Source\PSoC4/cy_em_eeprom.c **** * the EEPROM storage should not be read while the EEPROM write is not completed.
ARM GAS  C:\Users\nbutts\AppData\Local\Temp\ccrYYXbt.s 			page 8


 374:Generated_Source\PSoC4/cy_em_eeprom.c **** * The read also means the user code execution from the respective flash macro.
 375:Generated_Source\PSoC4/cy_em_eeprom.c **** *
 376:Generated_Source\PSoC4/cy_em_eeprom.c **** *******************************************************************************/
 377:Generated_Source\PSoC4/cy_em_eeprom.c **** cy_en_em_eeprom_status_t
 378:Generated_Source\PSoC4/cy_em_eeprom.c ****     Cy_Em_EEPROM_Write(uint32 addr, void * eepromData, uint32 size, cy_stc_eeprom_context_t * conte
 379:Generated_Source\PSoC4/cy_em_eeprom.c **** {
 380:Generated_Source\PSoC4/cy_em_eeprom.c ****     cy_en_em_eeprom_status_t ret = CY_EM_EEPROM_BAD_PARAM;
 381:Generated_Source\PSoC4/cy_em_eeprom.c ****     uint32 i;
 382:Generated_Source\PSoC4/cy_em_eeprom.c ****     uint32 wrCnt;
 383:Generated_Source\PSoC4/cy_em_eeprom.c ****     uint32 actEmEepromRowNum;
 384:Generated_Source\PSoC4/cy_em_eeprom.c ****     uint32 writeRamBuffer[CY_EM_EEPROM_FLASH_SIZEOF_ROW / CY_EM_EEPROM_U32_DIV];
 385:Generated_Source\PSoC4/cy_em_eeprom.c ****     uint32 startAddr = 0u;
 386:Generated_Source\PSoC4/cy_em_eeprom.c ****     uint32 endAddr = 0u;
 387:Generated_Source\PSoC4/cy_em_eeprom.c ****     uint32 tmpRowAddr;
 388:Generated_Source\PSoC4/cy_em_eeprom.c ****     uint32 emEepromRowAddr = context->lastWrRowAddr;
 389:Generated_Source\PSoC4/cy_em_eeprom.c ****     uint32 emEepromRowRdAddr;
 390:Generated_Source\PSoC4/cy_em_eeprom.c ****     void * tmpData;
 391:Generated_Source\PSoC4/cy_em_eeprom.c ****     uint32 eeData = (uint32) eepromData; /* To avoid the pointer arithmetic with void */
 392:Generated_Source\PSoC4/cy_em_eeprom.c **** 
 393:Generated_Source\PSoC4/cy_em_eeprom.c ****     /* Check if the EEPROM data does not exceed the EEPROM capacity */
 394:Generated_Source\PSoC4/cy_em_eeprom.c ****     if((0u != size) && ((addr + size) <= (context->eepromSize)) && (NULL != eepromData))
 395:Generated_Source\PSoC4/cy_em_eeprom.c ****     {
 396:Generated_Source\PSoC4/cy_em_eeprom.c ****         uint32 numWrites = ((size - 1u) / CY_EM_EEPROM_HEADER_DATA_LEN) + 1u;
 397:Generated_Source\PSoC4/cy_em_eeprom.c ****         uint32 eeHeaderDataOffset = 0u;
 398:Generated_Source\PSoC4/cy_em_eeprom.c **** 
 399:Generated_Source\PSoC4/cy_em_eeprom.c ****         for(wrCnt = 0u; wrCnt < numWrites; wrCnt++)
 400:Generated_Source\PSoC4/cy_em_eeprom.c ****         {
 401:Generated_Source\PSoC4/cy_em_eeprom.c ****             uint32 skipOperation = 0u;
 402:Generated_Source\PSoC4/cy_em_eeprom.c ****             /* Get the sequence number of the last written row */
 403:Generated_Source\PSoC4/cy_em_eeprom.c ****             uint32 seqNum = CY_GET_REG32(emEepromRowAddr);
 404:Generated_Source\PSoC4/cy_em_eeprom.c **** 
 405:Generated_Source\PSoC4/cy_em_eeprom.c ****             /* Get the address of the row to be written. The "emEepromRowAddr" may be
 406:Generated_Source\PSoC4/cy_em_eeprom.c ****             * updated with the proper address (if wear leveling is used). The
 407:Generated_Source\PSoC4/cy_em_eeprom.c ****             * "emEepromRowRdAddr" will point to the row address from which the historic
 408:Generated_Source\PSoC4/cy_em_eeprom.c ****             * data will be read into the RAM buffer.
 409:Generated_Source\PSoC4/cy_em_eeprom.c ****             */
 410:Generated_Source\PSoC4/cy_em_eeprom.c ****             GetNextRowToWrite(seqNum, &emEepromRowAddr, &emEepromRowRdAddr, context);
 411:Generated_Source\PSoC4/cy_em_eeprom.c **** 
 412:Generated_Source\PSoC4/cy_em_eeprom.c ****             /* Clear the RAM buffer so to not put junk into flash */
 413:Generated_Source\PSoC4/cy_em_eeprom.c ****             (void)memset(writeRamBuffer, 0, CY_EM_EEPROM_FLASH_SIZEOF_ROW);
 414:Generated_Source\PSoC4/cy_em_eeprom.c **** 
 415:Generated_Source\PSoC4/cy_em_eeprom.c ****             /* Fill the EM_EEPROM header info for the row in the RAM buffer */
 416:Generated_Source\PSoC4/cy_em_eeprom.c ****             seqNum++;
 417:Generated_Source\PSoC4/cy_em_eeprom.c ****             writeRamBuffer[0u] = seqNum;
 418:Generated_Source\PSoC4/cy_em_eeprom.c ****             writeRamBuffer[1u] = addr;
 419:Generated_Source\PSoC4/cy_em_eeprom.c ****             tmpData = (void *) eeData;
 420:Generated_Source\PSoC4/cy_em_eeprom.c **** 
 421:Generated_Source\PSoC4/cy_em_eeprom.c ****             /* Check if this is the last row to write */
 422:Generated_Source\PSoC4/cy_em_eeprom.c ****             if(wrCnt == (numWrites - 1u))
 423:Generated_Source\PSoC4/cy_em_eeprom.c ****             {
 424:Generated_Source\PSoC4/cy_em_eeprom.c ****                 /* Fill in the remaining size value to the EEPROM header. */
 425:Generated_Source\PSoC4/cy_em_eeprom.c ****                 writeRamBuffer[CY_EM_EEPROM_HEADER_LEN_OFFSET_U32] = size;
 426:Generated_Source\PSoC4/cy_em_eeprom.c ****             }
 427:Generated_Source\PSoC4/cy_em_eeprom.c ****             else
 428:Generated_Source\PSoC4/cy_em_eeprom.c ****             {
 429:Generated_Source\PSoC4/cy_em_eeprom.c ****                 /* This is not the last row to write in the current EEPROM write operation.
 430:Generated_Source\PSoC4/cy_em_eeprom.c ****                 * Write the maximum possible data size to the EEPROM header. Update the
ARM GAS  C:\Users\nbutts\AppData\Local\Temp\ccrYYXbt.s 			page 9


 431:Generated_Source\PSoC4/cy_em_eeprom.c ****                 * size, eeData and addr respectively.
 432:Generated_Source\PSoC4/cy_em_eeprom.c ****                 */
 433:Generated_Source\PSoC4/cy_em_eeprom.c ****                 writeRamBuffer[CY_EM_EEPROM_HEADER_LEN_OFFSET_U32] = CY_EM_EEPROM_HEADER_DATA_LEN;
 434:Generated_Source\PSoC4/cy_em_eeprom.c ****                 size -= CY_EM_EEPROM_HEADER_DATA_LEN;
 435:Generated_Source\PSoC4/cy_em_eeprom.c ****                 addr += CY_EM_EEPROM_HEADER_DATA_LEN;
 436:Generated_Source\PSoC4/cy_em_eeprom.c ****                 eeData += CY_EM_EEPROM_HEADER_DATA_LEN;
 437:Generated_Source\PSoC4/cy_em_eeprom.c ****             }
 438:Generated_Source\PSoC4/cy_em_eeprom.c **** 
 439:Generated_Source\PSoC4/cy_em_eeprom.c ****             /* Write the data to the EEPROM header */
 440:Generated_Source\PSoC4/cy_em_eeprom.c ****             (void)memcpy((void *)&writeRamBuffer[CY_EM_EEPROM_HEADER_DATA_OFFSET_U32],
 441:Generated_Source\PSoC4/cy_em_eeprom.c ****                          tmpData,
 442:Generated_Source\PSoC4/cy_em_eeprom.c ****                          writeRamBuffer[CY_EM_EEPROM_HEADER_LEN_OFFSET_U32]);
 443:Generated_Source\PSoC4/cy_em_eeprom.c **** 
 444:Generated_Source\PSoC4/cy_em_eeprom.c ****             if(emEepromRowRdAddr != 0UL)
 445:Generated_Source\PSoC4/cy_em_eeprom.c ****             {
 446:Generated_Source\PSoC4/cy_em_eeprom.c ****                 /* Copy the EEPROM historic data for this row from flash to RAM */
 447:Generated_Source\PSoC4/cy_em_eeprom.c ****                 (void)memcpy((void *)&writeRamBuffer[CY_EM_EEPROM_EEPROM_DATA_OFFSET_U32],
 448:Generated_Source\PSoC4/cy_em_eeprom.c ****                              (void *)(emEepromRowRdAddr + CY_EM_EEPROM_EEPROM_DATA_LEN),
 449:Generated_Source\PSoC4/cy_em_eeprom.c ****                              CY_EM_EEPROM_EEPROM_DATA_LEN);
 450:Generated_Source\PSoC4/cy_em_eeprom.c ****             }
 451:Generated_Source\PSoC4/cy_em_eeprom.c **** 
 452:Generated_Source\PSoC4/cy_em_eeprom.c ****             /* Check if there is data for this location in other EEPROM headers:
 453:Generated_Source\PSoC4/cy_em_eeprom.c ****             * find out the row with the lowest possible sequence number which
 454:Generated_Source\PSoC4/cy_em_eeprom.c ****             * may contain the data for the current row.
 455:Generated_Source\PSoC4/cy_em_eeprom.c ****             */
 456:Generated_Source\PSoC4/cy_em_eeprom.c ****             i = (seqNum > context->numberOfRows) ? ((seqNum - (context->numberOfRows)) + 1u) : 1u;
 457:Generated_Source\PSoC4/cy_em_eeprom.c **** 
 458:Generated_Source\PSoC4/cy_em_eeprom.c ****             for(; i <= seqNum; i++)
 459:Generated_Source\PSoC4/cy_em_eeprom.c ****             {
 460:Generated_Source\PSoC4/cy_em_eeprom.c ****                 if(i == seqNum)
 461:Generated_Source\PSoC4/cy_em_eeprom.c ****                 {
 462:Generated_Source\PSoC4/cy_em_eeprom.c ****                     /* The code reached the row that is about to be written. Analyze the recently
 463:Generated_Source\PSoC4/cy_em_eeprom.c ****                     * created EEPROM header (stored in the RAM buffer currently): if it contains
 464:Generated_Source\PSoC4/cy_em_eeprom.c ****                     * the data for EEPROM data locations in the row that is about to be written.
 465:Generated_Source\PSoC4/cy_em_eeprom.c ****                     */
 466:Generated_Source\PSoC4/cy_em_eeprom.c ****                     tmpRowAddr = (uint32) writeRamBuffer;
 467:Generated_Source\PSoC4/cy_em_eeprom.c ****                 }
 468:Generated_Source\PSoC4/cy_em_eeprom.c ****                 else
 469:Generated_Source\PSoC4/cy_em_eeprom.c ****                 {
 470:Generated_Source\PSoC4/cy_em_eeprom.c ****                     /* Retrieve the address of the previously written row by its sequence number.
 471:Generated_Source\PSoC4/cy_em_eeprom.c ****                     * The pointer will be used to get data from the respective EEPROM header.
 472:Generated_Source\PSoC4/cy_em_eeprom.c ****                     */
 473:Generated_Source\PSoC4/cy_em_eeprom.c ****                     tmpRowAddr = GetRowAddrBySeqNum(i, context);
 474:Generated_Source\PSoC4/cy_em_eeprom.c ****                 }
 475:Generated_Source\PSoC4/cy_em_eeprom.c **** 
 476:Generated_Source\PSoC4/cy_em_eeprom.c ****                 actEmEepromRowNum = CY_EM_EEPROM_GET_ACT_ROW_NUM_FROM_ADDR(emEepromRowAddr,
 477:Generated_Source\PSoC4/cy_em_eeprom.c ****                                                                            context->numberOfRows,
 478:Generated_Source\PSoC4/cy_em_eeprom.c ****                                                                            context->userFlashStartA
 479:Generated_Source\PSoC4/cy_em_eeprom.c ****                 if(0UL != tmpRowAddr)
 480:Generated_Source\PSoC4/cy_em_eeprom.c ****                 {
 481:Generated_Source\PSoC4/cy_em_eeprom.c ****                     /* Calculate the required addressed for the later EEPROM historic data update *
 482:Generated_Source\PSoC4/cy_em_eeprom.c ****                     skipOperation = GetAddresses(
 483:Generated_Source\PSoC4/cy_em_eeprom.c ****                                               &startAddr,
 484:Generated_Source\PSoC4/cy_em_eeprom.c ****                                               &endAddr,
 485:Generated_Source\PSoC4/cy_em_eeprom.c ****                                               &eeHeaderDataOffset,
 486:Generated_Source\PSoC4/cy_em_eeprom.c ****                                               actEmEepromRowNum,
 487:Generated_Source\PSoC4/cy_em_eeprom.c ****                                               *(uint32 *)(tmpRowAddr + CY_EM_EEPROM_HEADER_ADDR_OFF
ARM GAS  C:\Users\nbutts\AppData\Local\Temp\ccrYYXbt.s 			page 10


 488:Generated_Source\PSoC4/cy_em_eeprom.c ****                                               *(uint32 *)(tmpRowAddr + CY_EM_EEPROM_HEADER_LEN_OFFS
 489:Generated_Source\PSoC4/cy_em_eeprom.c ****                 }
 490:Generated_Source\PSoC4/cy_em_eeprom.c ****                 else
 491:Generated_Source\PSoC4/cy_em_eeprom.c ****                 {
 492:Generated_Source\PSoC4/cy_em_eeprom.c ****                     /* Skip writes to the RAM buffer */
 493:Generated_Source\PSoC4/cy_em_eeprom.c ****                     skipOperation++;
 494:Generated_Source\PSoC4/cy_em_eeprom.c ****                 }
 495:Generated_Source\PSoC4/cy_em_eeprom.c **** 
 496:Generated_Source\PSoC4/cy_em_eeprom.c ****                 /* Write data to the RAM buffer */
 497:Generated_Source\PSoC4/cy_em_eeprom.c ****                 if(0u == skipOperation)
 498:Generated_Source\PSoC4/cy_em_eeprom.c ****                 {
 499:Generated_Source\PSoC4/cy_em_eeprom.c ****                     uint32 dataAddr = ((uint32)((uint8 *)&writeRamBuffer)) + startAddr;
 500:Generated_Source\PSoC4/cy_em_eeprom.c **** 
 501:Generated_Source\PSoC4/cy_em_eeprom.c ****                     /* Update the address to point to the EEPROM header data and not to
 502:Generated_Source\PSoC4/cy_em_eeprom.c ****                     * the start of the row.
 503:Generated_Source\PSoC4/cy_em_eeprom.c ****                     */
 504:Generated_Source\PSoC4/cy_em_eeprom.c ****                     tmpRowAddr = tmpRowAddr + CY_EM_EEPROM_HEADER_DATA_OFFSET + eeHeaderDataOffset;
 505:Generated_Source\PSoC4/cy_em_eeprom.c ****                     (void)memcpy((void *)(dataAddr), (void *)(tmpRowAddr), endAddr - startAddr);
 506:Generated_Source\PSoC4/cy_em_eeprom.c ****                 }
 507:Generated_Source\PSoC4/cy_em_eeprom.c **** 
 508:Generated_Source\PSoC4/cy_em_eeprom.c ****                 /* Calculate the checksum if redundant copy is enabled */
 509:Generated_Source\PSoC4/cy_em_eeprom.c ****                 if(0u != context->redundantCopy)
 510:Generated_Source\PSoC4/cy_em_eeprom.c ****                 {
 511:Generated_Source\PSoC4/cy_em_eeprom.c ****                     writeRamBuffer[CY_EM_EEPROM_HEADER_CHECKSUM_OFFSET_U32] = (uint32)
 512:Generated_Source\PSoC4/cy_em_eeprom.c ****                         CalcChecksum((uint8 *) &writeRamBuffer[CY_EM_EEPROM_EEPROM_DATA_OFFSET_U32]
 513:Generated_Source\PSoC4/cy_em_eeprom.c ****                                                   CY_EM_EEPROM_EEPROM_DATA_LEN);
 514:Generated_Source\PSoC4/cy_em_eeprom.c ****                 }
 515:Generated_Source\PSoC4/cy_em_eeprom.c ****             }
 516:Generated_Source\PSoC4/cy_em_eeprom.c **** 
 517:Generated_Source\PSoC4/cy_em_eeprom.c ****             /* Write the data to the specified flash row */
 518:Generated_Source\PSoC4/cy_em_eeprom.c ****             ret = WriteRow(emEepromRowAddr, writeRamBuffer, context);
 519:Generated_Source\PSoC4/cy_em_eeprom.c ****             tmpRowAddr = emEepromRowAddr;
 520:Generated_Source\PSoC4/cy_em_eeprom.c **** 
 521:Generated_Source\PSoC4/cy_em_eeprom.c ****             /* Check if redundant copy is used */
 522:Generated_Source\PSoC4/cy_em_eeprom.c ****             if((0u != context->redundantCopy) && (CY_EM_EEPROM_SUCCESS == ret))
 523:Generated_Source\PSoC4/cy_em_eeprom.c ****             {
 524:Generated_Source\PSoC4/cy_em_eeprom.c ****                 /* Update the row address to point to the row in the redundant EEPROM's copy */
 525:Generated_Source\PSoC4/cy_em_eeprom.c ****                 tmpRowAddr = (emEepromRowAddr - context->userFlashStartAddr) + context->wlEndAddr;
 526:Generated_Source\PSoC4/cy_em_eeprom.c **** 
 527:Generated_Source\PSoC4/cy_em_eeprom.c ****                 /* Write the data to the specified flash row */
 528:Generated_Source\PSoC4/cy_em_eeprom.c ****                 ret = WriteRow(tmpRowAddr, writeRamBuffer, context);
 529:Generated_Source\PSoC4/cy_em_eeprom.c ****             }
 530:Generated_Source\PSoC4/cy_em_eeprom.c **** 
 531:Generated_Source\PSoC4/cy_em_eeprom.c ****             if(CY_EM_EEPROM_SUCCESS == ret)
 532:Generated_Source\PSoC4/cy_em_eeprom.c ****             {
 533:Generated_Source\PSoC4/cy_em_eeprom.c ****                 /* Store last written row address only when EEPROM and redundant
 534:Generated_Source\PSoC4/cy_em_eeprom.c ****                 * copy writes were successful.
 535:Generated_Source\PSoC4/cy_em_eeprom.c ****                 */
 536:Generated_Source\PSoC4/cy_em_eeprom.c ****                 context->lastWrRowAddr = emEepromRowAddr;
 537:Generated_Source\PSoC4/cy_em_eeprom.c ****             }
 538:Generated_Source\PSoC4/cy_em_eeprom.c ****             else
 539:Generated_Source\PSoC4/cy_em_eeprom.c ****             {
 540:Generated_Source\PSoC4/cy_em_eeprom.c ****                 break;
 541:Generated_Source\PSoC4/cy_em_eeprom.c ****             }
 542:Generated_Source\PSoC4/cy_em_eeprom.c ****         }
 543:Generated_Source\PSoC4/cy_em_eeprom.c ****     }
 544:Generated_Source\PSoC4/cy_em_eeprom.c ****     return(ret);
ARM GAS  C:\Users\nbutts\AppData\Local\Temp\ccrYYXbt.s 			page 11


 545:Generated_Source\PSoC4/cy_em_eeprom.c **** }
 546:Generated_Source\PSoC4/cy_em_eeprom.c **** 
 547:Generated_Source\PSoC4/cy_em_eeprom.c **** 
 548:Generated_Source\PSoC4/cy_em_eeprom.c **** /*******************************************************************************
 549:Generated_Source\PSoC4/cy_em_eeprom.c **** * Function Name: Cy_Em_EEPROM_Erase
 550:Generated_Source\PSoC4/cy_em_eeprom.c **** ****************************************************************************//**
 551:Generated_Source\PSoC4/cy_em_eeprom.c **** *
 552:Generated_Source\PSoC4/cy_em_eeprom.c **** * This function erases the entire contents of the EEPROM. Erased values are all
 553:Generated_Source\PSoC4/cy_em_eeprom.c **** * zeros. This is a blocking function and it does not return until the write
 554:Generated_Source\PSoC4/cy_em_eeprom.c **** * operation is completed. The user firmware should not enter Hibernate mode until
 555:Generated_Source\PSoC4/cy_em_eeprom.c **** * erase is completed. The erase operation is allowed in Sleep and Deep-Sleep modes.
 556:Generated_Source\PSoC4/cy_em_eeprom.c **** * During the flash operation, the device should not be reset, including the
 557:Generated_Source\PSoC4/cy_em_eeprom.c **** * XRES pin, a software reset, and watchdog reset sources. Also, low-voltage
 558:Generated_Source\PSoC4/cy_em_eeprom.c **** * detect circuits should be configured to generate an interrupt instead of a
 559:Generated_Source\PSoC4/cy_em_eeprom.c **** * reset. Otherwise, portions of flash may undergo unexpected changes.
 560:Generated_Source\PSoC4/cy_em_eeprom.c **** *
 561:Generated_Source\PSoC4/cy_em_eeprom.c **** * \param context
 562:Generated_Source\PSoC4/cy_em_eeprom.c **** * The pointer to the EEPROM context structure \ref cy_stc_eeprom_context_t.
 563:Generated_Source\PSoC4/cy_em_eeprom.c **** *
 564:Generated_Source\PSoC4/cy_em_eeprom.c **** * \return
 565:Generated_Source\PSoC4/cy_em_eeprom.c **** * This function returns \ref cy_en_em_eeprom_status_t.
 566:Generated_Source\PSoC4/cy_em_eeprom.c **** *
 567:Generated_Source\PSoC4/cy_em_eeprom.c **** * \note
 568:Generated_Source\PSoC4/cy_em_eeprom.c **** * For all non PSoC 6 devices the erase operation is performed by clearing
 569:Generated_Source\PSoC4/cy_em_eeprom.c **** * the EEPROM data using flash write. This affects the flash durability.
 570:Generated_Source\PSoC4/cy_em_eeprom.c **** * So it is recommended to use this function in utmost case to prolongate
 571:Generated_Source\PSoC4/cy_em_eeprom.c **** * flash life.
 572:Generated_Source\PSoC4/cy_em_eeprom.c **** *
 573:Generated_Source\PSoC4/cy_em_eeprom.c **** * This function uses a buffer of the flash row size to perform erase
 574:Generated_Source\PSoC4/cy_em_eeprom.c **** * operation. For the size of the row refer to the specific PSoC device
 575:Generated_Source\PSoC4/cy_em_eeprom.c **** * datasheet.
 576:Generated_Source\PSoC4/cy_em_eeprom.c **** *
 577:Generated_Source\PSoC4/cy_em_eeprom.c **** * \sideeffect
 578:Generated_Source\PSoC4/cy_em_eeprom.c **** * In case when blocking write option is used, if this function is called by
 579:Generated_Source\PSoC4/cy_em_eeprom.c **** * the CM4 the user code on CM0P and the user code on CM4 are blocked until erase
 580:Generated_Source\PSoC4/cy_em_eeprom.c **** * flash row operation is finished. If this function is called by the CM0P the
 581:Generated_Source\PSoC4/cy_em_eeprom.c **** * user code on CM4 is not blocked and the user code on CM0P is blocked until
 582:Generated_Source\PSoC4/cy_em_eeprom.c **** * erase flash row operation is finished. Plan your task allocation accordingly.
 583:Generated_Source\PSoC4/cy_em_eeprom.c **** *
 584:Generated_Source\PSoC4/cy_em_eeprom.c **** * In case if non-blocking write option is used and when user flash is used as
 585:Generated_Source\PSoC4/cy_em_eeprom.c **** * an EEPROM storage care should be taken to prevent the read while write (RWW)
 586:Generated_Source\PSoC4/cy_em_eeprom.c **** * exception. To prevent the RWW exception the user flash macro that includes
 587:Generated_Source\PSoC4/cy_em_eeprom.c **** * the EEPROM storage should not be read while the EEPROM erase is not completed.
 588:Generated_Source\PSoC4/cy_em_eeprom.c **** * The read also means the user code execution from the respective flash macro.
 589:Generated_Source\PSoC4/cy_em_eeprom.c **** *
 590:Generated_Source\PSoC4/cy_em_eeprom.c **** *******************************************************************************/
 591:Generated_Source\PSoC4/cy_em_eeprom.c **** cy_en_em_eeprom_status_t Cy_Em_EEPROM_Erase(cy_stc_eeprom_context_t * context)
 592:Generated_Source\PSoC4/cy_em_eeprom.c **** {
 593:Generated_Source\PSoC4/cy_em_eeprom.c ****     uint32 i;
 594:Generated_Source\PSoC4/cy_em_eeprom.c ****     uint32 seqNum;
 595:Generated_Source\PSoC4/cy_em_eeprom.c ****     uint32 emEepromRowAddr = context->lastWrRowAddr;
 596:Generated_Source\PSoC4/cy_em_eeprom.c ****     uint32 emEepromRowRdAddr;
 597:Generated_Source\PSoC4/cy_em_eeprom.c ****     cy_en_em_eeprom_status_t ret = CY_EM_EEPROM_WRITE_FAIL;
 598:Generated_Source\PSoC4/cy_em_eeprom.c ****     uint32 writeRamBuffer[CY_EM_EEPROM_FLASH_SIZEOF_ROW / CY_EM_EEPROM_U32_DIV] = {0u};
 599:Generated_Source\PSoC4/cy_em_eeprom.c **** #if (CY_PSOC6)
 600:Generated_Source\PSoC4/cy_em_eeprom.c ****     uint32 emEepromStoredRowAddr = context->lastWrRowAddr;
 601:Generated_Source\PSoC4/cy_em_eeprom.c ****     uint32 storedSeqNum;
ARM GAS  C:\Users\nbutts\AppData\Local\Temp\ccrYYXbt.s 			page 12


 602:Generated_Source\PSoC4/cy_em_eeprom.c **** #endif /* (!CY_PSOC6) */
 603:Generated_Source\PSoC4/cy_em_eeprom.c **** 
 604:Generated_Source\PSoC4/cy_em_eeprom.c ****     /* Get the sequence number of the last written row */
 605:Generated_Source\PSoC4/cy_em_eeprom.c ****     seqNum = CY_GET_REG32(emEepromRowAddr);
 606:Generated_Source\PSoC4/cy_em_eeprom.c **** 
 607:Generated_Source\PSoC4/cy_em_eeprom.c ****     /* If there were no writes to EEPROM - nothing to erase */
 608:Generated_Source\PSoC4/cy_em_eeprom.c ****     if(0u != seqNum)
 609:Generated_Source\PSoC4/cy_em_eeprom.c ****     {
 610:Generated_Source\PSoC4/cy_em_eeprom.c ****         /* Calculate the number of row erase operations required */
 611:Generated_Source\PSoC4/cy_em_eeprom.c ****         uint32 numWrites = context->numberOfRows * context->wearLevelingFactor;
 612:Generated_Source\PSoC4/cy_em_eeprom.c **** 
 613:Generated_Source\PSoC4/cy_em_eeprom.c ****     #if (CY_PSOC6)
 614:Generated_Source\PSoC4/cy_em_eeprom.c ****         GetNextRowToWrite(seqNum, &emEepromStoredRowAddr, &emEepromRowRdAddr, context);
 615:Generated_Source\PSoC4/cy_em_eeprom.c ****         storedSeqNum = seqNum + 1u;
 616:Generated_Source\PSoC4/cy_em_eeprom.c ****     #endif /* (CY_PSOC6) */
 617:Generated_Source\PSoC4/cy_em_eeprom.c **** 
 618:Generated_Source\PSoC4/cy_em_eeprom.c ****         if(0u != context->redundantCopy)
 619:Generated_Source\PSoC4/cy_em_eeprom.c ****         {
 620:Generated_Source\PSoC4/cy_em_eeprom.c ****             writeRamBuffer[CY_EM_EEPROM_HEADER_CHECKSUM_OFFSET_U32] = (uint32)
 621:Generated_Source\PSoC4/cy_em_eeprom.c ****                         CalcChecksum((uint8 *) &writeRamBuffer[CY_EM_EEPROM_EEPROM_DATA_OFFSET_U32]
 622:Generated_Source\PSoC4/cy_em_eeprom.c ****                                                   CY_EM_EEPROM_EEPROM_DATA_LEN);
 623:Generated_Source\PSoC4/cy_em_eeprom.c ****         }
 624:Generated_Source\PSoC4/cy_em_eeprom.c **** 
 625:Generated_Source\PSoC4/cy_em_eeprom.c ****         for(i = 0u; i < numWrites; i++)
 626:Generated_Source\PSoC4/cy_em_eeprom.c ****         {
 627:Generated_Source\PSoC4/cy_em_eeprom.c ****         #if (CY_PSOC6)
 628:Generated_Source\PSoC4/cy_em_eeprom.c ****             /* For PSoC 6 the erase operation moves backwards. From last written row
 629:Generated_Source\PSoC4/cy_em_eeprom.c ****             * identified by "seqNum" down to "seqNum" - "numWrites". If "emEepromRowAddr"
 630:Generated_Source\PSoC4/cy_em_eeprom.c ****             * is zero this means that the row identified by "seqNum" was previously 
 631:Generated_Source\PSoC4/cy_em_eeprom.c ****             * erased.
 632:Generated_Source\PSoC4/cy_em_eeprom.c ****             */
 633:Generated_Source\PSoC4/cy_em_eeprom.c ****             if(0u != emEepromRowAddr)
 634:Generated_Source\PSoC4/cy_em_eeprom.c ****             {
 635:Generated_Source\PSoC4/cy_em_eeprom.c ****                 ret = EraseRow(emEepromRowAddr, (uint32)writeRamBuffer, context);
 636:Generated_Source\PSoC4/cy_em_eeprom.c ****             }
 637:Generated_Source\PSoC4/cy_em_eeprom.c **** 
 638:Generated_Source\PSoC4/cy_em_eeprom.c ****             seqNum--;
 639:Generated_Source\PSoC4/cy_em_eeprom.c **** 
 640:Generated_Source\PSoC4/cy_em_eeprom.c ****             if(0u == seqNum)
 641:Generated_Source\PSoC4/cy_em_eeprom.c ****             {
 642:Generated_Source\PSoC4/cy_em_eeprom.c ****                 /* Exit the loop as there is no more row is EEPROM to be erased */
 643:Generated_Source\PSoC4/cy_em_eeprom.c ****                 break;
 644:Generated_Source\PSoC4/cy_em_eeprom.c ****             }
 645:Generated_Source\PSoC4/cy_em_eeprom.c ****             emEepromRowAddr = GetRowAddrBySeqNum(seqNum, context);
 646:Generated_Source\PSoC4/cy_em_eeprom.c ****         #else
 647:Generated_Source\PSoC4/cy_em_eeprom.c ****             seqNum = CY_GET_REG32(emEepromRowAddr);
 648:Generated_Source\PSoC4/cy_em_eeprom.c ****             /* Get the address of the row to be erased. "emEepromRowAddr" may be updated
 649:Generated_Source\PSoC4/cy_em_eeprom.c ****             * with the proper address (if wear leveling is used).
 650:Generated_Source\PSoC4/cy_em_eeprom.c ****             */
 651:Generated_Source\PSoC4/cy_em_eeprom.c ****             GetNextRowToWrite(seqNum, &emEepromRowAddr, &emEepromRowRdAddr, context);
 652:Generated_Source\PSoC4/cy_em_eeprom.c ****             seqNum++;
 653:Generated_Source\PSoC4/cy_em_eeprom.c ****             writeRamBuffer[0u] = seqNum;
 654:Generated_Source\PSoC4/cy_em_eeprom.c ****             ret = EraseRow(emEepromRowAddr, (uint32)writeRamBuffer, context);
 655:Generated_Source\PSoC4/cy_em_eeprom.c ****         #endif /* (CY_PSOC6) */
 656:Generated_Source\PSoC4/cy_em_eeprom.c ****         }
 657:Generated_Source\PSoC4/cy_em_eeprom.c **** 
 658:Generated_Source\PSoC4/cy_em_eeprom.c ****     #if (CY_PSOC6)
ARM GAS  C:\Users\nbutts\AppData\Local\Temp\ccrYYXbt.s 			page 13


 659:Generated_Source\PSoC4/cy_em_eeprom.c ****         if(CY_EM_EEPROM_SUCCESS == ret)
 660:Generated_Source\PSoC4/cy_em_eeprom.c ****         {
 661:Generated_Source\PSoC4/cy_em_eeprom.c ****             writeRamBuffer[0u] = storedSeqNum;
 662:Generated_Source\PSoC4/cy_em_eeprom.c **** 
 663:Generated_Source\PSoC4/cy_em_eeprom.c ****             /* Write the previously stored sequence number to the flash row which would be
 664:Generated_Source\PSoC4/cy_em_eeprom.c ****             * written next if the erase wouldn't happen. In this case the write to
 665:Generated_Source\PSoC4/cy_em_eeprom.c ****             * redundant copy can be skipped as it does not add any value.
 666:Generated_Source\PSoC4/cy_em_eeprom.c ****             */
 667:Generated_Source\PSoC4/cy_em_eeprom.c ****             ret = WriteRow(emEepromStoredRowAddr, writeRamBuffer, context);
 668:Generated_Source\PSoC4/cy_em_eeprom.c **** 
 669:Generated_Source\PSoC4/cy_em_eeprom.c ****             if(CY_EM_EEPROM_SUCCESS == ret)
 670:Generated_Source\PSoC4/cy_em_eeprom.c ****             {
 671:Generated_Source\PSoC4/cy_em_eeprom.c ****                 context->lastWrRowAddr = emEepromStoredRowAddr;
 672:Generated_Source\PSoC4/cy_em_eeprom.c ****             }
 673:Generated_Source\PSoC4/cy_em_eeprom.c ****         }
 674:Generated_Source\PSoC4/cy_em_eeprom.c ****     #endif /* (CY_PSOC6) */
 675:Generated_Source\PSoC4/cy_em_eeprom.c **** 
 676:Generated_Source\PSoC4/cy_em_eeprom.c ****     }
 677:Generated_Source\PSoC4/cy_em_eeprom.c ****     return(ret);
 678:Generated_Source\PSoC4/cy_em_eeprom.c **** }
 679:Generated_Source\PSoC4/cy_em_eeprom.c **** 
 680:Generated_Source\PSoC4/cy_em_eeprom.c **** 
 681:Generated_Source\PSoC4/cy_em_eeprom.c **** /*******************************************************************************
 682:Generated_Source\PSoC4/cy_em_eeprom.c **** * Function Name: Cy_Em_EEPROM_NumWrites
 683:Generated_Source\PSoC4/cy_em_eeprom.c **** ****************************************************************************//**
 684:Generated_Source\PSoC4/cy_em_eeprom.c **** *
 685:Generated_Source\PSoC4/cy_em_eeprom.c **** * Returns the number of the EEPROM writes completed so far.
 686:Generated_Source\PSoC4/cy_em_eeprom.c **** *
 687:Generated_Source\PSoC4/cy_em_eeprom.c **** * \param context
 688:Generated_Source\PSoC4/cy_em_eeprom.c **** * The pointer to the EEPROM context structure \ref cy_stc_eeprom_context_t.
 689:Generated_Source\PSoC4/cy_em_eeprom.c **** *
 690:Generated_Source\PSoC4/cy_em_eeprom.c **** * \return
 691:Generated_Source\PSoC4/cy_em_eeprom.c **** * The number of writes performed to the EEPROM.
 692:Generated_Source\PSoC4/cy_em_eeprom.c **** *
 693:Generated_Source\PSoC4/cy_em_eeprom.c **** *******************************************************************************/
 694:Generated_Source\PSoC4/cy_em_eeprom.c **** uint32 Cy_Em_EEPROM_NumWrites(cy_stc_eeprom_context_t * context)
 695:Generated_Source\PSoC4/cy_em_eeprom.c **** {
 696:Generated_Source\PSoC4/cy_em_eeprom.c ****     return(CY_GET_REG32(context->lastWrRowAddr));
 697:Generated_Source\PSoC4/cy_em_eeprom.c **** }
 698:Generated_Source\PSoC4/cy_em_eeprom.c **** 
 699:Generated_Source\PSoC4/cy_em_eeprom.c **** /** \} */
 700:Generated_Source\PSoC4/cy_em_eeprom.c **** 
 701:Generated_Source\PSoC4/cy_em_eeprom.c **** /** \cond INTERNAL */
 702:Generated_Source\PSoC4/cy_em_eeprom.c **** 
 703:Generated_Source\PSoC4/cy_em_eeprom.c **** 
 704:Generated_Source\PSoC4/cy_em_eeprom.c **** /*******************************************************************************
 705:Generated_Source\PSoC4/cy_em_eeprom.c **** * Function Name: FindLastWrittenRow
 706:Generated_Source\PSoC4/cy_em_eeprom.c **** ****************************************************************************//**
 707:Generated_Source\PSoC4/cy_em_eeprom.c **** *
 708:Generated_Source\PSoC4/cy_em_eeprom.c **** * Performs a search of the last written row address of the EEPROM associated
 709:Generated_Source\PSoC4/cy_em_eeprom.c **** * with the context structure. If there were no writes to the EEPROm the
 710:Generated_Source\PSoC4/cy_em_eeprom.c **** * function returns the start address of the EEPROM. The row address is returned
 711:Generated_Source\PSoC4/cy_em_eeprom.c **** * in the input parameter.
 712:Generated_Source\PSoC4/cy_em_eeprom.c **** *
 713:Generated_Source\PSoC4/cy_em_eeprom.c **** * \param lastWrRowPtr
 714:Generated_Source\PSoC4/cy_em_eeprom.c **** * The pointer to a memory where the last written row will be returned.
 715:Generated_Source\PSoC4/cy_em_eeprom.c **** *
ARM GAS  C:\Users\nbutts\AppData\Local\Temp\ccrYYXbt.s 			page 14


 716:Generated_Source\PSoC4/cy_em_eeprom.c **** * \param context
 717:Generated_Source\PSoC4/cy_em_eeprom.c **** * The pointer to the EEPROM context structure \ref cy_stc_eeprom_context_t.
 718:Generated_Source\PSoC4/cy_em_eeprom.c **** *
 719:Generated_Source\PSoC4/cy_em_eeprom.c **** *******************************************************************************/
 720:Generated_Source\PSoC4/cy_em_eeprom.c **** static void FindLastWrittenRow(uint32 * lastWrRowPtr, cy_stc_eeprom_context_t * context)
 721:Generated_Source\PSoC4/cy_em_eeprom.c **** {
  27              		.loc 1 721 0
  28              		.cfi_startproc
  29              		@ args = 0, pretend = 0, frame = 0
  30              		@ frame_needed = 0, uses_anonymous_args = 0
  31              	.LVL0:
  32 0000 70B5     		push	{r4, r5, r6, lr}
  33              		.cfi_def_cfa_offset 16
  34              		.cfi_offset 4, -16
  35              		.cfi_offset 5, -12
  36              		.cfi_offset 6, -8
  37              		.cfi_offset 14, -4
  38              	.LVL1:
 722:Generated_Source\PSoC4/cy_em_eeprom.c ****     uint32 seqNum = 0u;
 723:Generated_Source\PSoC4/cy_em_eeprom.c ****     uint32 prevSeqNum = 0u;
 724:Generated_Source\PSoC4/cy_em_eeprom.c ****     uint32 numRows;
 725:Generated_Source\PSoC4/cy_em_eeprom.c ****     uint32 emEepromAddr = context->userFlashStartAddr;
  39              		.loc 1 725 0
  40 0002 8A69     		ldr	r2, [r1, #24]
  41              	.LVL2:
 726:Generated_Source\PSoC4/cy_em_eeprom.c **** 
 727:Generated_Source\PSoC4/cy_em_eeprom.c ****     *lastWrRowPtr = emEepromAddr;
  42              		.loc 1 727 0
  43 0004 0260     		str	r2, [r0]
  44              	.LVL3:
 728:Generated_Source\PSoC4/cy_em_eeprom.c **** 
 729:Generated_Source\PSoC4/cy_em_eeprom.c ****     for(numRows = 0u; numRows < (context->numberOfRows * context->wearLevelingFactor); numRows++)
  45              		.loc 1 729 0
  46 0006 0024     		movs	r4, #0
 723:Generated_Source\PSoC4/cy_em_eeprom.c ****     uint32 numRows;
  47              		.loc 1 723 0
  48 0008 0025     		movs	r5, #0
  49              		.loc 1 729 0
  50 000a 08E0     		b	.L2
  51              	.LVL4:
  52              	.L4:
 730:Generated_Source\PSoC4/cy_em_eeprom.c ****     {
 731:Generated_Source\PSoC4/cy_em_eeprom.c ****         seqNum = CY_GET_REG32(emEepromAddr);
  53              		.loc 1 731 0
  54 000c 1368     		ldr	r3, [r2]
  55              	.LVL5:
 732:Generated_Source\PSoC4/cy_em_eeprom.c ****         if((0u != seqNum) && (seqNum > prevSeqNum))
  56              		.loc 1 732 0
  57 000e 002B     		cmp	r3, #0
  58 0010 03D0     		beq	.L3
  59              		.loc 1 732 0 is_stmt 0 discriminator 1
  60 0012 9D42     		cmp	r5, r3
  61 0014 01D2     		bcs	.L3
  62              	.LVL6:
 733:Generated_Source\PSoC4/cy_em_eeprom.c ****         {
 734:Generated_Source\PSoC4/cy_em_eeprom.c ****             /* Some record in EEPROM was found. Store found sequence
 735:Generated_Source\PSoC4/cy_em_eeprom.c ****             * number and row address.
ARM GAS  C:\Users\nbutts\AppData\Local\Temp\ccrYYXbt.s 			page 15


 736:Generated_Source\PSoC4/cy_em_eeprom.c ****             */
 737:Generated_Source\PSoC4/cy_em_eeprom.c ****             prevSeqNum = seqNum;
 738:Generated_Source\PSoC4/cy_em_eeprom.c ****             *lastWrRowPtr = emEepromAddr;
  63              		.loc 1 738 0 is_stmt 1
  64 0016 0260     		str	r2, [r0]
 737:Generated_Source\PSoC4/cy_em_eeprom.c ****             *lastWrRowPtr = emEepromAddr;
  65              		.loc 1 737 0
  66 0018 1D00     		movs	r5, r3
  67              	.LVL7:
  68              	.L3:
 739:Generated_Source\PSoC4/cy_em_eeprom.c ****         }
 740:Generated_Source\PSoC4/cy_em_eeprom.c **** 
 741:Generated_Source\PSoC4/cy_em_eeprom.c ****         /* Switch to the next row */
 742:Generated_Source\PSoC4/cy_em_eeprom.c ****         emEepromAddr = emEepromAddr + CY_EM_EEPROM_FLASH_SIZEOF_ROW;
  69              		.loc 1 742 0 discriminator 2
  70 001a 8032     		adds	r2, r2, #128
  71              	.LVL8:
 729:Generated_Source\PSoC4/cy_em_eeprom.c ****     {
  72              		.loc 1 729 0 discriminator 2
  73 001c 0134     		adds	r4, r4, #1
  74              	.LVL9:
  75              	.L2:
 729:Generated_Source\PSoC4/cy_em_eeprom.c ****     {
  76              		.loc 1 729 0 is_stmt 0 discriminator 1
  77 001e 0B69     		ldr	r3, [r1, #16]
  78 0020 4E68     		ldr	r6, [r1, #4]
  79 0022 7343     		muls	r3, r6
  80 0024 9C42     		cmp	r4, r3
  81 0026 F1D3     		bcc	.L4
 743:Generated_Source\PSoC4/cy_em_eeprom.c ****     }
 744:Generated_Source\PSoC4/cy_em_eeprom.c **** }
  82              		.loc 1 744 0 is_stmt 1
  83              		@ sp needed
  84              	.LVL10:
  85              	.LVL11:
  86 0028 70BD     		pop	{r4, r5, r6, pc}
  87              		.cfi_endproc
  88              	.LFE6:
  89              		.size	FindLastWrittenRow, .-FindLastWrittenRow
  90 002a C046     		.section	.text.GetRowAddrBySeqNum,"ax",%progbits
  91              		.align	2
  92              		.code	16
  93              		.thumb_func
  94              		.type	GetRowAddrBySeqNum, %function
  95              	GetRowAddrBySeqNum:
  96              	.LFB7:
 745:Generated_Source\PSoC4/cy_em_eeprom.c **** 
 746:Generated_Source\PSoC4/cy_em_eeprom.c **** 
 747:Generated_Source\PSoC4/cy_em_eeprom.c **** /*******************************************************************************
 748:Generated_Source\PSoC4/cy_em_eeprom.c **** * Function Name: GetRowAddrBySeqNum
 749:Generated_Source\PSoC4/cy_em_eeprom.c **** ****************************************************************************//**
 750:Generated_Source\PSoC4/cy_em_eeprom.c **** *
 751:Generated_Source\PSoC4/cy_em_eeprom.c **** * Returns the address of the row in EEPROM using its sequence number.
 752:Generated_Source\PSoC4/cy_em_eeprom.c **** *
 753:Generated_Source\PSoC4/cy_em_eeprom.c **** * \param seqNum
 754:Generated_Source\PSoC4/cy_em_eeprom.c **** * The sequence number of the row.
 755:Generated_Source\PSoC4/cy_em_eeprom.c **** *
ARM GAS  C:\Users\nbutts\AppData\Local\Temp\ccrYYXbt.s 			page 16


 756:Generated_Source\PSoC4/cy_em_eeprom.c **** * \param context
 757:Generated_Source\PSoC4/cy_em_eeprom.c **** * The pointer to the EEPROM context structure.
 758:Generated_Source\PSoC4/cy_em_eeprom.c **** *
 759:Generated_Source\PSoC4/cy_em_eeprom.c **** * \return
 760:Generated_Source\PSoC4/cy_em_eeprom.c **** * The address of the row or zero if the row with the sequence number was not
 761:Generated_Source\PSoC4/cy_em_eeprom.c **** * found.
 762:Generated_Source\PSoC4/cy_em_eeprom.c **** *
 763:Generated_Source\PSoC4/cy_em_eeprom.c **** *******************************************************************************/
 764:Generated_Source\PSoC4/cy_em_eeprom.c **** static uint32 GetRowAddrBySeqNum(uint32 seqNum, cy_stc_eeprom_context_t * context)
 765:Generated_Source\PSoC4/cy_em_eeprom.c **** {
  97              		.loc 1 765 0
  98              		.cfi_startproc
  99              		@ args = 0, pretend = 0, frame = 0
 100              		@ frame_needed = 0, uses_anonymous_args = 0
 101              		@ link register save eliminated.
 102              	.LVL12:
 766:Generated_Source\PSoC4/cy_em_eeprom.c ****     uint32 emEepromAddr = context->userFlashStartAddr;
 103              		.loc 1 766 0
 104 0000 8B69     		ldr	r3, [r1, #24]
 105              	.LVL13:
 767:Generated_Source\PSoC4/cy_em_eeprom.c **** 
 768:Generated_Source\PSoC4/cy_em_eeprom.c ****     while(CY_GET_REG32(emEepromAddr) != seqNum)
 106              		.loc 1 768 0
 107 0002 03E0     		b	.L6
 108              	.L8:
 769:Generated_Source\PSoC4/cy_em_eeprom.c ****     {
 770:Generated_Source\PSoC4/cy_em_eeprom.c ****         /* Switch to the next row */
 771:Generated_Source\PSoC4/cy_em_eeprom.c ****         emEepromAddr = emEepromAddr + CY_EM_EEPROM_FLASH_SIZEOF_ROW;
 109              		.loc 1 771 0
 110 0004 8033     		adds	r3, r3, #128
 111              	.LVL14:
 772:Generated_Source\PSoC4/cy_em_eeprom.c **** 
 773:Generated_Source\PSoC4/cy_em_eeprom.c ****         if (CY_EM_EEPROM_ADDR_IN_RANGE !=
 112              		.loc 1 773 0
 113 0006 0A68     		ldr	r2, [r1]
 114 0008 9342     		cmp	r3, r2
 115 000a 03D2     		bcs	.L9
 116              	.L6:
 768:Generated_Source\PSoC4/cy_em_eeprom.c ****     {
 117              		.loc 1 768 0
 118 000c 1A68     		ldr	r2, [r3]
 119 000e 8242     		cmp	r2, r0
 120 0010 F8D1     		bne	.L8
 121 0012 00E0     		b	.L7
 122              	.L9:
 774:Generated_Source\PSoC4/cy_em_eeprom.c ****             CY_EM_EEPROM_IS_ADDR_EXCEED_RANGE(emEepromAddr, context->wlEndAddr))
 775:Generated_Source\PSoC4/cy_em_eeprom.c ****         {
 776:Generated_Source\PSoC4/cy_em_eeprom.c ****             emEepromAddr = 0u;
 123              		.loc 1 776 0
 124 0014 0023     		movs	r3, #0
 125              	.LVL15:
 126              	.L7:
 777:Generated_Source\PSoC4/cy_em_eeprom.c ****             /* Exit the loop as we reached the end of EEPROM */
 778:Generated_Source\PSoC4/cy_em_eeprom.c ****             break;
 779:Generated_Source\PSoC4/cy_em_eeprom.c ****         }
 780:Generated_Source\PSoC4/cy_em_eeprom.c ****     }
 781:Generated_Source\PSoC4/cy_em_eeprom.c **** 
ARM GAS  C:\Users\nbutts\AppData\Local\Temp\ccrYYXbt.s 			page 17


 782:Generated_Source\PSoC4/cy_em_eeprom.c ****     return (emEepromAddr);
 783:Generated_Source\PSoC4/cy_em_eeprom.c **** }
 127              		.loc 1 783 0
 128 0016 1800     		movs	r0, r3
 129              	.LVL16:
 130              		@ sp needed
 131 0018 7047     		bx	lr
 132              		.cfi_endproc
 133              	.LFE7:
 134              		.size	GetRowAddrBySeqNum, .-GetRowAddrBySeqNum
 135 001a C046     		.section	.text.GetNextRowToWrite,"ax",%progbits
 136              		.align	2
 137              		.code	16
 138              		.thumb_func
 139              		.type	GetNextRowToWrite, %function
 140              	GetNextRowToWrite:
 141              	.LFB8:
 784:Generated_Source\PSoC4/cy_em_eeprom.c **** 
 785:Generated_Source\PSoC4/cy_em_eeprom.c **** 
 786:Generated_Source\PSoC4/cy_em_eeprom.c **** /*******************************************************************************
 787:Generated_Source\PSoC4/cy_em_eeprom.c **** * Function Name: GetNextRowToWrite
 788:Generated_Source\PSoC4/cy_em_eeprom.c **** ****************************************************************************//**
 789:Generated_Source\PSoC4/cy_em_eeprom.c **** *
 790:Generated_Source\PSoC4/cy_em_eeprom.c **** * Performs a range check of the row that should be written and updates the
 791:Generated_Source\PSoC4/cy_em_eeprom.c **** * address to the row respectively. The similar actions are done for the read
 792:Generated_Source\PSoC4/cy_em_eeprom.c **** * address.
 793:Generated_Source\PSoC4/cy_em_eeprom.c **** *
 794:Generated_Source\PSoC4/cy_em_eeprom.c **** * \param seqNum
 795:Generated_Source\PSoC4/cy_em_eeprom.c **** * The sequence number of the last written row.
 796:Generated_Source\PSoC4/cy_em_eeprom.c **** *
 797:Generated_Source\PSoC4/cy_em_eeprom.c **** * \param rowToWrPtr
 798:Generated_Source\PSoC4/cy_em_eeprom.c **** * The address of the last written row (input). The address of the row to be 
 799:Generated_Source\PSoC4/cy_em_eeprom.c **** * written (output).
 800:Generated_Source\PSoC4/cy_em_eeprom.c **** *
 801:Generated_Source\PSoC4/cy_em_eeprom.c **** * \param rowToRdPtr
 802:Generated_Source\PSoC4/cy_em_eeprom.c **** * The address of the row from which the data should be read into the RAM buffer
 803:Generated_Source\PSoC4/cy_em_eeprom.c **** * in a later write operation. Out parameter.
 804:Generated_Source\PSoC4/cy_em_eeprom.c **** *
 805:Generated_Source\PSoC4/cy_em_eeprom.c **** * \param context
 806:Generated_Source\PSoC4/cy_em_eeprom.c **** * The pointer to the EEPROM context structure \ref cy_stc_eeprom_context_t.
 807:Generated_Source\PSoC4/cy_em_eeprom.c **** *
 808:Generated_Source\PSoC4/cy_em_eeprom.c **** *******************************************************************************/
 809:Generated_Source\PSoC4/cy_em_eeprom.c **** static void GetNextRowToWrite(uint32 seqNum,
 810:Generated_Source\PSoC4/cy_em_eeprom.c ****         uint32 * rowToWrPtr, uint32 * rowToRdPtr, cy_stc_eeprom_context_t * context)
 811:Generated_Source\PSoC4/cy_em_eeprom.c **** {
 142              		.loc 1 811 0
 143              		.cfi_startproc
 144              		@ args = 0, pretend = 0, frame = 0
 145              		@ frame_needed = 0, uses_anonymous_args = 0
 146              	.LVL17:
 147 0000 30B5     		push	{r4, r5, lr}
 148              		.cfi_def_cfa_offset 12
 149              		.cfi_offset 4, -12
 150              		.cfi_offset 5, -8
 151              		.cfi_offset 14, -4
 812:Generated_Source\PSoC4/cy_em_eeprom.c ****     /* Switch to the next row to be written if the current sequence number is
 813:Generated_Source\PSoC4/cy_em_eeprom.c ****     * not zero.
ARM GAS  C:\Users\nbutts\AppData\Local\Temp\ccrYYXbt.s 			page 18


 814:Generated_Source\PSoC4/cy_em_eeprom.c ****     */
 815:Generated_Source\PSoC4/cy_em_eeprom.c ****     if(0u != seqNum)
 152              		.loc 1 815 0
 153 0002 0028     		cmp	r0, #0
 154 0004 02D0     		beq	.L11
 816:Generated_Source\PSoC4/cy_em_eeprom.c ****     {
 817:Generated_Source\PSoC4/cy_em_eeprom.c ****         *rowToWrPtr = (*rowToWrPtr + CY_EM_EEPROM_FLASH_SIZEOF_ROW);
 155              		.loc 1 817 0
 156 0006 0C68     		ldr	r4, [r1]
 157 0008 8034     		adds	r4, r4, #128
 158 000a 0C60     		str	r4, [r1]
 159              	.L11:
 818:Generated_Source\PSoC4/cy_em_eeprom.c ****     }
 819:Generated_Source\PSoC4/cy_em_eeprom.c **** 
 820:Generated_Source\PSoC4/cy_em_eeprom.c ****     /* If the resulting row address is out of EEPROM, then switch to the base
 821:Generated_Source\PSoC4/cy_em_eeprom.c ****     * EEPROM address (Row#0).
 822:Generated_Source\PSoC4/cy_em_eeprom.c ****     */
 823:Generated_Source\PSoC4/cy_em_eeprom.c ****     if(CY_EM_EEPROM_ADDR_IN_RANGE !=
 160              		.loc 1 823 0
 161 000c 0C68     		ldr	r4, [r1]
 162 000e 1D68     		ldr	r5, [r3]
 163 0010 AC42     		cmp	r4, r5
 164 0012 01D3     		bcc	.L12
 824:Generated_Source\PSoC4/cy_em_eeprom.c ****             CY_EM_EEPROM_IS_ADDR_EXCEED_RANGE(*rowToWrPtr, context->wlEndAddr))
 825:Generated_Source\PSoC4/cy_em_eeprom.c ****     {
 826:Generated_Source\PSoC4/cy_em_eeprom.c ****         *rowToWrPtr = context->userFlashStartAddr;
 165              		.loc 1 826 0
 166 0014 9C69     		ldr	r4, [r3, #24]
 167 0016 0C60     		str	r4, [r1]
 168              	.L12:
 827:Generated_Source\PSoC4/cy_em_eeprom.c ****     }
 828:Generated_Source\PSoC4/cy_em_eeprom.c **** 
 829:Generated_Source\PSoC4/cy_em_eeprom.c ****     *rowToRdPtr = 0u;
 169              		.loc 1 829 0
 170 0018 0024     		movs	r4, #0
 171 001a 1460     		str	r4, [r2]
 830:Generated_Source\PSoC4/cy_em_eeprom.c **** 
 831:Generated_Source\PSoC4/cy_em_eeprom.c ****     /* Check if the sequence number is larger than the number of rows in the EEPROM.
 832:Generated_Source\PSoC4/cy_em_eeprom.c ****     * If not, do not update the row read address because there is no historic
 833:Generated_Source\PSoC4/cy_em_eeprom.c ****     * data to be read.
 834:Generated_Source\PSoC4/cy_em_eeprom.c ****     */
 835:Generated_Source\PSoC4/cy_em_eeprom.c ****     if(context->numberOfRows <= seqNum)
 172              		.loc 1 835 0
 173 001c 5C68     		ldr	r4, [r3, #4]
 174 001e A042     		cmp	r0, r4
 175 0020 16D3     		bcc	.L10
 836:Generated_Source\PSoC4/cy_em_eeprom.c ****     {
 837:Generated_Source\PSoC4/cy_em_eeprom.c ****         /* Check if wear leveling is used in EEPROM */
 838:Generated_Source\PSoC4/cy_em_eeprom.c ****         if(context->wearLevelingFactor > 1u)
 176              		.loc 1 838 0
 177 0022 1D69     		ldr	r5, [r3, #16]
 178 0024 012D     		cmp	r5, #1
 179 0026 11D9     		bls	.L14
 839:Generated_Source\PSoC4/cy_em_eeprom.c ****         {
 840:Generated_Source\PSoC4/cy_em_eeprom.c ****             /* The read row address should be taken from an EEPROM copy that became
 841:Generated_Source\PSoC4/cy_em_eeprom.c ****             * inactive recently. This condition check handles that.
 842:Generated_Source\PSoC4/cy_em_eeprom.c ****             */
ARM GAS  C:\Users\nbutts\AppData\Local\Temp\ccrYYXbt.s 			page 19


 843:Generated_Source\PSoC4/cy_em_eeprom.c ****             if((*rowToWrPtr - (context->numberOfRows * CY_EM_EEPROM_FLASH_SIZEOF_ROW)) <
 180              		.loc 1 843 0
 181 0028 0868     		ldr	r0, [r1]
 182              	.LVL18:
 183 002a E101     		lsls	r1, r4, #7
 184              	.LVL19:
 185 002c 411A     		subs	r1, r0, r1
 844:Generated_Source\PSoC4/cy_em_eeprom.c ****                 context->userFlashStartAddr)
 186              		.loc 1 844 0
 187 002e 9B69     		ldr	r3, [r3, #24]
 188              	.LVL20:
 843:Generated_Source\PSoC4/cy_em_eeprom.c ****                 context->userFlashStartAddr)
 189              		.loc 1 843 0
 190 0030 9942     		cmp	r1, r3
 191 0032 09D2     		bcs	.L15
 845:Generated_Source\PSoC4/cy_em_eeprom.c ****             {
 846:Generated_Source\PSoC4/cy_em_eeprom.c ****                 *rowToRdPtr = context->userFlashStartAddr +
 847:Generated_Source\PSoC4/cy_em_eeprom.c ****                     (context->numberOfRows * (context->wearLevelingFactor - 1u) *
 192              		.loc 1 847 0
 193 0034 0749     		ldr	r1, .L16
 194 0036 8C46     		mov	ip, r1
 195 0038 6544     		add	r5, r5, ip
 196 003a 6C43     		muls	r4, r5
 197 003c E401     		lsls	r4, r4, #7
 846:Generated_Source\PSoC4/cy_em_eeprom.c ****                     (context->numberOfRows * (context->wearLevelingFactor - 1u) *
 198              		.loc 1 846 0
 199 003e 1C19     		adds	r4, r3, r4
 848:Generated_Source\PSoC4/cy_em_eeprom.c ****                         CY_EM_EEPROM_FLASH_SIZEOF_ROW) + (*rowToWrPtr - context->userFlashStartAddr
 200              		.loc 1 848 0
 201 0040 C01A     		subs	r0, r0, r3
 202 0042 2418     		adds	r4, r4, r0
 846:Generated_Source\PSoC4/cy_em_eeprom.c ****                     (context->numberOfRows * (context->wearLevelingFactor - 1u) *
 203              		.loc 1 846 0
 204 0044 1460     		str	r4, [r2]
 205 0046 03E0     		b	.L10
 206              	.L15:
 849:Generated_Source\PSoC4/cy_em_eeprom.c ****             }
 850:Generated_Source\PSoC4/cy_em_eeprom.c ****             else
 851:Generated_Source\PSoC4/cy_em_eeprom.c ****             {
 852:Generated_Source\PSoC4/cy_em_eeprom.c ****                 *rowToRdPtr = *rowToWrPtr - (context->numberOfRows * CY_EM_EEPROM_FLASH_SIZEOF_ROW)
 207              		.loc 1 852 0
 208 0048 1160     		str	r1, [r2]
 209 004a 01E0     		b	.L10
 210              	.LVL21:
 211              	.L14:
 853:Generated_Source\PSoC4/cy_em_eeprom.c ****             }
 854:Generated_Source\PSoC4/cy_em_eeprom.c ****         }
 855:Generated_Source\PSoC4/cy_em_eeprom.c ****         else
 856:Generated_Source\PSoC4/cy_em_eeprom.c ****         {
 857:Generated_Source\PSoC4/cy_em_eeprom.c ****             /* If no wear leveling, always read from the same flash row that
 858:Generated_Source\PSoC4/cy_em_eeprom.c ****             * should be written.
 859:Generated_Source\PSoC4/cy_em_eeprom.c ****             */
 860:Generated_Source\PSoC4/cy_em_eeprom.c ****             *rowToRdPtr = *rowToWrPtr;
 212              		.loc 1 860 0
 213 004c 0B68     		ldr	r3, [r1]
 214              	.LVL22:
 215 004e 1360     		str	r3, [r2]
ARM GAS  C:\Users\nbutts\AppData\Local\Temp\ccrYYXbt.s 			page 20


 216              	.LVL23:
 217              	.L10:
 861:Generated_Source\PSoC4/cy_em_eeprom.c ****         }
 862:Generated_Source\PSoC4/cy_em_eeprom.c ****     }
 863:Generated_Source\PSoC4/cy_em_eeprom.c **** }
 218              		.loc 1 863 0
 219              		@ sp needed
 220 0050 30BD     		pop	{r4, r5, pc}
 221              	.L17:
 222 0052 C046     		.align	2
 223              	.L16:
 224 0054 FFFFFF01 		.word	33554431
 225              		.cfi_endproc
 226              	.LFE8:
 227              		.size	GetNextRowToWrite, .-GetNextRowToWrite
 228              		.section	.text.CalcChecksum,"ax",%progbits
 229              		.align	2
 230              		.code	16
 231              		.thumb_func
 232              		.type	CalcChecksum, %function
 233              	CalcChecksum:
 234              	.LFB9:
 864:Generated_Source\PSoC4/cy_em_eeprom.c **** 
 865:Generated_Source\PSoC4/cy_em_eeprom.c **** 
 866:Generated_Source\PSoC4/cy_em_eeprom.c **** /*******************************************************************************
 867:Generated_Source\PSoC4/cy_em_eeprom.c **** * Function Name: CalcChecksum
 868:Generated_Source\PSoC4/cy_em_eeprom.c **** ****************************************************************************//**
 869:Generated_Source\PSoC4/cy_em_eeprom.c **** *
 870:Generated_Source\PSoC4/cy_em_eeprom.c **** * Implements CRC-8 that is used in checksum calculation for the redundant copy
 871:Generated_Source\PSoC4/cy_em_eeprom.c **** * algorithm.
 872:Generated_Source\PSoC4/cy_em_eeprom.c **** *
 873:Generated_Source\PSoC4/cy_em_eeprom.c **** * \param rowData
 874:Generated_Source\PSoC4/cy_em_eeprom.c **** * The row data to be used to calculate the checksum.
 875:Generated_Source\PSoC4/cy_em_eeprom.c **** *
 876:Generated_Source\PSoC4/cy_em_eeprom.c **** * \param len
 877:Generated_Source\PSoC4/cy_em_eeprom.c **** * The length of rowData.
 878:Generated_Source\PSoC4/cy_em_eeprom.c **** *
 879:Generated_Source\PSoC4/cy_em_eeprom.c **** * \return
 880:Generated_Source\PSoC4/cy_em_eeprom.c **** * The calculated value of CRC-8.
 881:Generated_Source\PSoC4/cy_em_eeprom.c **** *
 882:Generated_Source\PSoC4/cy_em_eeprom.c **** *******************************************************************************/
 883:Generated_Source\PSoC4/cy_em_eeprom.c **** static uint8 CalcChecksum(uint8 rowData[], uint32 len)
 884:Generated_Source\PSoC4/cy_em_eeprom.c **** {
 235              		.loc 1 884 0
 236              		.cfi_startproc
 237              		@ args = 0, pretend = 0, frame = 0
 238              		@ frame_needed = 0, uses_anonymous_args = 0
 239              	.LVL24:
 240 0000 30B5     		push	{r4, r5, lr}
 241              		.cfi_def_cfa_offset 12
 242              		.cfi_offset 4, -12
 243              		.cfi_offset 5, -8
 244              		.cfi_offset 14, -4
 245 0002 0500     		movs	r5, r0
 246              	.LVL25:
 885:Generated_Source\PSoC4/cy_em_eeprom.c ****     uint8 crc = CY_EM_EEPROM_CRC8_SEED;
 886:Generated_Source\PSoC4/cy_em_eeprom.c ****     uint8 i;
ARM GAS  C:\Users\nbutts\AppData\Local\Temp\ccrYYXbt.s 			page 21


 887:Generated_Source\PSoC4/cy_em_eeprom.c ****     uint16 cnt = 0u;
 247              		.loc 1 887 0
 248 0004 0024     		movs	r4, #0
 885:Generated_Source\PSoC4/cy_em_eeprom.c ****     uint8 crc = CY_EM_EEPROM_CRC8_SEED;
 249              		.loc 1 885 0
 250 0006 FF20     		movs	r0, #255
 251              	.LVL26:
 888:Generated_Source\PSoC4/cy_em_eeprom.c **** 
 889:Generated_Source\PSoC4/cy_em_eeprom.c ****     while(cnt != len)
 252              		.loc 1 889 0
 253 0008 14E0     		b	.L19
 254              	.LVL27:
 255              	.L24:
 890:Generated_Source\PSoC4/cy_em_eeprom.c ****     {
 891:Generated_Source\PSoC4/cy_em_eeprom.c ****         crc ^= rowData[cnt];
 256              		.loc 1 891 0
 257 000a 2B5D     		ldrb	r3, [r5, r4]
 258 000c 5840     		eors	r0, r3
 259              	.LVL28:
 892:Generated_Source\PSoC4/cy_em_eeprom.c ****         for (i = 0u; i < CY_EM_EEPROM_CRC8_POLYNOM_LEN; i++)
 260              		.loc 1 892 0
 261 000e 0022     		movs	r2, #0
 262 0010 0CE0     		b	.L20
 263              	.LVL29:
 264              	.L23:
 893:Generated_Source\PSoC4/cy_em_eeprom.c ****         {
 894:Generated_Source\PSoC4/cy_em_eeprom.c ****             crc = CY_EM_EEPROM_CALCULATE_CRC8(crc);
 265              		.loc 1 894 0
 266 0012 43B2     		sxtb	r3, r0
 267 0014 002B     		cmp	r3, #0
 268 0016 05DA     		bge	.L21
 269              		.loc 1 894 0 is_stmt 0 discriminator 1
 270 0018 4000     		lsls	r0, r0, #1
 271              	.LVL30:
 272 001a C3B2     		uxtb	r3, r0
 273              	.LVL31:
 274 001c 3120     		movs	r0, #49
 275 001e 4340     		eors	r3, r0
 276 0020 D8B2     		uxtb	r0, r3
 277 0022 01E0     		b	.L22
 278              	.LVL32:
 279              	.L21:
 280              		.loc 1 894 0 discriminator 2
 281 0024 4000     		lsls	r0, r0, #1
 282              	.LVL33:
 283 0026 C0B2     		uxtb	r0, r0
 284              	.LVL34:
 285              	.L22:
 892:Generated_Source\PSoC4/cy_em_eeprom.c ****         for (i = 0u; i < CY_EM_EEPROM_CRC8_POLYNOM_LEN; i++)
 286              		.loc 1 892 0 is_stmt 1 discriminator 4
 287 0028 0132     		adds	r2, r2, #1
 288              	.LVL35:
 289 002a D2B2     		uxtb	r2, r2
 290              	.LVL36:
 291              	.L20:
 892:Generated_Source\PSoC4/cy_em_eeprom.c ****         for (i = 0u; i < CY_EM_EEPROM_CRC8_POLYNOM_LEN; i++)
 292              		.loc 1 892 0 is_stmt 0 discriminator 2
ARM GAS  C:\Users\nbutts\AppData\Local\Temp\ccrYYXbt.s 			page 22


 293 002c 072A     		cmp	r2, #7
 294 002e F0D9     		bls	.L23
 895:Generated_Source\PSoC4/cy_em_eeprom.c ****         }
 896:Generated_Source\PSoC4/cy_em_eeprom.c ****         cnt++;
 295              		.loc 1 896 0 is_stmt 1
 296 0030 0134     		adds	r4, r4, #1
 297              	.LVL37:
 298 0032 A4B2     		uxth	r4, r4
 299              	.LVL38:
 300              	.L19:
 889:Generated_Source\PSoC4/cy_em_eeprom.c ****     {
 301              		.loc 1 889 0
 302 0034 8C42     		cmp	r4, r1
 303 0036 E8D1     		bne	.L24
 897:Generated_Source\PSoC4/cy_em_eeprom.c ****     }
 898:Generated_Source\PSoC4/cy_em_eeprom.c **** 
 899:Generated_Source\PSoC4/cy_em_eeprom.c ****     return (crc);
 900:Generated_Source\PSoC4/cy_em_eeprom.c **** }
 304              		.loc 1 900 0
 305              		@ sp needed
 306              	.LVL39:
 307              	.LVL40:
 308 0038 30BD     		pop	{r4, r5, pc}
 309              		.cfi_endproc
 310              	.LFE9:
 311              		.size	CalcChecksum, .-CalcChecksum
 312 003a C046     		.section	.text.CheckRanges,"ax",%progbits
 313              		.align	2
 314              		.code	16
 315              		.thumb_func
 316              		.type	CheckRanges, %function
 317              	CheckRanges:
 318              	.LFB10:
 901:Generated_Source\PSoC4/cy_em_eeprom.c **** 
 902:Generated_Source\PSoC4/cy_em_eeprom.c **** 
 903:Generated_Source\PSoC4/cy_em_eeprom.c **** /*******************************************************************************
 904:Generated_Source\PSoC4/cy_em_eeprom.c **** * Function Name: CheckRanges
 905:Generated_Source\PSoC4/cy_em_eeprom.c **** ****************************************************************************//**
 906:Generated_Source\PSoC4/cy_em_eeprom.c **** *
 907:Generated_Source\PSoC4/cy_em_eeprom.c **** * Checks if the EEPROM of the requested size can be placed in flash.
 908:Generated_Source\PSoC4/cy_em_eeprom.c **** *
 909:Generated_Source\PSoC4/cy_em_eeprom.c **** * \param config
 910:Generated_Source\PSoC4/cy_em_eeprom.c **** * The pointer to a configuration structure. See \ref cy_stc_eeprom_config_t.
 911:Generated_Source\PSoC4/cy_em_eeprom.c **** *
 912:Generated_Source\PSoC4/cy_em_eeprom.c **** * \return
 913:Generated_Source\PSoC4/cy_em_eeprom.c **** * error / status code. See \ref cy_en_em_eeprom_status_t.
 914:Generated_Source\PSoC4/cy_em_eeprom.c **** *
 915:Generated_Source\PSoC4/cy_em_eeprom.c **** *******************************************************************************/
 916:Generated_Source\PSoC4/cy_em_eeprom.c **** static cy_en_em_eeprom_status_t CheckRanges(cy_stc_eeprom_config_t* config)
 917:Generated_Source\PSoC4/cy_em_eeprom.c **** {
 319              		.loc 1 917 0
 320              		.cfi_startproc
 321              		@ args = 0, pretend = 0, frame = 0
 322              		@ frame_needed = 0, uses_anonymous_args = 0
 323              	.LVL41:
 324 0000 10B5     		push	{r4, lr}
 325              		.cfi_def_cfa_offset 8
ARM GAS  C:\Users\nbutts\AppData\Local\Temp\ccrYYXbt.s 			page 23


 326              		.cfi_offset 4, -8
 327              		.cfi_offset 14, -4
 328              	.LVL42:
 918:Generated_Source\PSoC4/cy_em_eeprom.c ****     cy_en_em_eeprom_status_t ret = CY_EM_EEPROM_BAD_DATA;
 919:Generated_Source\PSoC4/cy_em_eeprom.c ****     uint32 startAddr = config->userFlashStartAddr;
 329              		.loc 1 919 0
 330 0002 C468     		ldr	r4, [r0, #12]
 331              	.LVL43:
 920:Generated_Source\PSoC4/cy_em_eeprom.c ****     uint32 endAddr = startAddr + CY_EM_EEPROM_GET_PHYSICAL_SIZE(config->eepromSize,
 332              		.loc 1 920 0
 333 0004 0268     		ldr	r2, [r0]
 334 0006 9109     		lsrs	r1, r2, #6
 335 0008 3F23     		movs	r3, #63
 336 000a 1340     		ands	r3, r2
 337 000c 00D0     		beq	.L26
 338 000e 0123     		movs	r3, #1
 339              	.L26:
 340              		.loc 1 920 0 is_stmt 0 discriminator 4
 341 0010 5B18     		adds	r3, r3, r1
 342 0012 4268     		ldr	r2, [r0, #4]
 343 0014 5343     		muls	r3, r2
 344 0016 027A     		ldrb	r2, [r0, #8]
 345 0018 0132     		adds	r2, r2, #1
 346 001a 5343     		muls	r3, r2
 347 001c DB01     		lsls	r3, r3, #7
 348 001e E318     		adds	r3, r4, r3
 349              	.LVL44:
 921:Generated_Source\PSoC4/cy_em_eeprom.c ****             config->wearLevelingFactor, config->redundantCopy);
 922:Generated_Source\PSoC4/cy_em_eeprom.c **** 
 923:Generated_Source\PSoC4/cy_em_eeprom.c ****     /* Range check if there is enough flash for EEPROM */
 924:Generated_Source\PSoC4/cy_em_eeprom.c ****     if (CY_EM_EEPROM_IS_IN_FLASH_RANGE(startAddr, endAddr))
 350              		.loc 1 924 0 is_stmt 1 discriminator 4
 351 0020 002C     		cmp	r4, #0
 352 0022 05D0     		beq	.L28
 353              		.loc 1 924 0 is_stmt 0 discriminator 1
 354 0024 8022     		movs	r2, #128
 355 0026 1202     		lsls	r2, r2, #8
 356 0028 9342     		cmp	r3, r2
 357 002a 03D9     		bls	.L29
 918:Generated_Source\PSoC4/cy_em_eeprom.c ****     uint32 startAddr = config->userFlashStartAddr;
 358              		.loc 1 918 0 is_stmt 1
 359 002c 0320     		movs	r0, #3
 360              	.LVL45:
 361 002e 02E0     		b	.L27
 362              	.LVL46:
 363              	.L28:
 364 0030 0320     		movs	r0, #3
 365              	.LVL47:
 366 0032 00E0     		b	.L27
 367              	.LVL48:
 368              	.L29:
 925:Generated_Source\PSoC4/cy_em_eeprom.c ****     {
 926:Generated_Source\PSoC4/cy_em_eeprom.c ****         ret = CY_EM_EEPROM_SUCCESS;
 369              		.loc 1 926 0
 370 0034 0020     		movs	r0, #0
 371              	.LVL49:
 372              	.L27:
ARM GAS  C:\Users\nbutts\AppData\Local\Temp\ccrYYXbt.s 			page 24


 927:Generated_Source\PSoC4/cy_em_eeprom.c ****     }
 928:Generated_Source\PSoC4/cy_em_eeprom.c ****     return (ret);
 929:Generated_Source\PSoC4/cy_em_eeprom.c **** }
 373              		.loc 1 929 0
 374              		@ sp needed
 375              	.LVL50:
 376 0036 10BD     		pop	{r4, pc}
 377              		.cfi_endproc
 378              	.LFE10:
 379              		.size	CheckRanges, .-CheckRanges
 380              		.section	.text.GetAddresses,"ax",%progbits
 381              		.align	2
 382              		.code	16
 383              		.thumb_func
 384              		.type	GetAddresses, %function
 385              	GetAddresses:
 386              	.LFB14:
 930:Generated_Source\PSoC4/cy_em_eeprom.c **** 
 931:Generated_Source\PSoC4/cy_em_eeprom.c **** 
 932:Generated_Source\PSoC4/cy_em_eeprom.c **** /*******************************************************************************
 933:Generated_Source\PSoC4/cy_em_eeprom.c **** * Function Name: WriteRow
 934:Generated_Source\PSoC4/cy_em_eeprom.c **** ****************************************************************************//**
 935:Generated_Source\PSoC4/cy_em_eeprom.c **** *
 936:Generated_Source\PSoC4/cy_em_eeprom.c **** * Writes one flash row starting from the specified row address.
 937:Generated_Source\PSoC4/cy_em_eeprom.c **** *
 938:Generated_Source\PSoC4/cy_em_eeprom.c **** * \param rowAdd
 939:Generated_Source\PSoC4/cy_em_eeprom.c **** * The address of the flash row.
 940:Generated_Source\PSoC4/cy_em_eeprom.c **** *
 941:Generated_Source\PSoC4/cy_em_eeprom.c **** * \param rowData
 942:Generated_Source\PSoC4/cy_em_eeprom.c **** * The pointer to the data to be written to the row.
 943:Generated_Source\PSoC4/cy_em_eeprom.c **** *
 944:Generated_Source\PSoC4/cy_em_eeprom.c **** * \param context
 945:Generated_Source\PSoC4/cy_em_eeprom.c **** * The pointer to the EEPROM context structure \ref cy_stc_eeprom_context_t.
 946:Generated_Source\PSoC4/cy_em_eeprom.c **** *
 947:Generated_Source\PSoC4/cy_em_eeprom.c **** * \return
 948:Generated_Source\PSoC4/cy_em_eeprom.c **** * error / status code. See \ref cy_en_em_eeprom_status_t.
 949:Generated_Source\PSoC4/cy_em_eeprom.c **** *
 950:Generated_Source\PSoC4/cy_em_eeprom.c **** *******************************************************************************/
 951:Generated_Source\PSoC4/cy_em_eeprom.c **** static cy_en_em_eeprom_status_t WriteRow(uint32 rowAddr, uint32 *rowData,
 952:Generated_Source\PSoC4/cy_em_eeprom.c ****         cy_stc_eeprom_context_t * context)
 953:Generated_Source\PSoC4/cy_em_eeprom.c **** {
 954:Generated_Source\PSoC4/cy_em_eeprom.c ****     cy_en_em_eeprom_status_t ret = CY_EM_EEPROM_WRITE_FAIL;
 955:Generated_Source\PSoC4/cy_em_eeprom.c **** #if (!CY_PSOC6)
 956:Generated_Source\PSoC4/cy_em_eeprom.c ****     cystatus rc;
 957:Generated_Source\PSoC4/cy_em_eeprom.c ****     uint32 rowId;
 958:Generated_Source\PSoC4/cy_em_eeprom.c ****     #if ((CY_PSOC3) || (CY_PSOC5))
 959:Generated_Source\PSoC4/cy_em_eeprom.c ****         uint32 arrayId;
 960:Generated_Source\PSoC4/cy_em_eeprom.c ****     #endif /* (CY_PSOC3) */
 961:Generated_Source\PSoC4/cy_em_eeprom.c **** 
 962:Generated_Source\PSoC4/cy_em_eeprom.c ****     context = context; /* To avoid compiler warning generation */
 963:Generated_Source\PSoC4/cy_em_eeprom.c **** 
 964:Generated_Source\PSoC4/cy_em_eeprom.c ****     /* For non-PSoC 6 devices, the Array ID and Row ID needed to write the row */
 965:Generated_Source\PSoC4/cy_em_eeprom.c ****     #if (CY_PSOC3)
 966:Generated_Source\PSoC4/cy_em_eeprom.c ****         
 967:Generated_Source\PSoC4/cy_em_eeprom.c ****         rowAddr &= CY_EM_EEPROM_CODE_ADDR_MASK;
 968:Generated_Source\PSoC4/cy_em_eeprom.c ****     #endif /* ((CY_PSOC3) */
 969:Generated_Source\PSoC4/cy_em_eeprom.c ****     rowId = (rowAddr / CY_EM_EEPROM_FLASH_SIZEOF_ROW) % CY_EM_EEPROM_ROWS_IN_ARRAY;
ARM GAS  C:\Users\nbutts\AppData\Local\Temp\ccrYYXbt.s 			page 25


 970:Generated_Source\PSoC4/cy_em_eeprom.c **** 
 971:Generated_Source\PSoC4/cy_em_eeprom.c ****     /* Write the flash row */
 972:Generated_Source\PSoC4/cy_em_eeprom.c ****     #if (CY_PSOC4)
 973:Generated_Source\PSoC4/cy_em_eeprom.c ****         rc = CySysFlashWriteRow(rowId, (uint8 *)rowData);
 974:Generated_Source\PSoC4/cy_em_eeprom.c ****     #else
 975:Generated_Source\PSoC4/cy_em_eeprom.c ****         (void)CySetTemp();
 976:Generated_Source\PSoC4/cy_em_eeprom.c ****         arrayId = rowAddr / CY_FLASH_SIZEOF_ARRAY;
 977:Generated_Source\PSoC4/cy_em_eeprom.c ****         rc = CyWriteRowData((uint8)arrayId, (uint16)rowId, (uint8 *)rowData);
 978:Generated_Source\PSoC4/cy_em_eeprom.c ****     #endif /* (CY_PSOC4) */
 979:Generated_Source\PSoC4/cy_em_eeprom.c **** 
 980:Generated_Source\PSoC4/cy_em_eeprom.c ****     if(CYRET_SUCCESS == rc)
 981:Generated_Source\PSoC4/cy_em_eeprom.c ****     {
 982:Generated_Source\PSoC4/cy_em_eeprom.c ****         ret = CY_EM_EEPROM_SUCCESS;
 983:Generated_Source\PSoC4/cy_em_eeprom.c ****     }
 984:Generated_Source\PSoC4/cy_em_eeprom.c **** #else /* PSoC 6 */
 985:Generated_Source\PSoC4/cy_em_eeprom.c ****     if(0u != context->blockingWrite)
 986:Generated_Source\PSoC4/cy_em_eeprom.c ****     {
 987:Generated_Source\PSoC4/cy_em_eeprom.c ****         /* Do blocking write */
 988:Generated_Source\PSoC4/cy_em_eeprom.c ****         if(CY_FLASH_DRV_SUCCESS == Cy_Flash_WriteRow(rowAddr, (const uint32 *)rowData))
 989:Generated_Source\PSoC4/cy_em_eeprom.c ****         {
 990:Generated_Source\PSoC4/cy_em_eeprom.c ****             ret = CY_EM_EEPROM_SUCCESS;
 991:Generated_Source\PSoC4/cy_em_eeprom.c ****         }
 992:Generated_Source\PSoC4/cy_em_eeprom.c ****     }
 993:Generated_Source\PSoC4/cy_em_eeprom.c ****     else
 994:Generated_Source\PSoC4/cy_em_eeprom.c ****     {
 995:Generated_Source\PSoC4/cy_em_eeprom.c ****         /* Initiate write */
 996:Generated_Source\PSoC4/cy_em_eeprom.c ****         if(CY_FLASH_DRV_OPERATION_STARTED == Cy_Flash_StartWrite(rowAddr, (const uint32 *)rowData))
 997:Generated_Source\PSoC4/cy_em_eeprom.c ****         {
 998:Generated_Source\PSoC4/cy_em_eeprom.c ****             uint32 countMs = CY_EM_EEPROM_MAX_WRITE_DURATION_MS;
 999:Generated_Source\PSoC4/cy_em_eeprom.c ****             cy_en_flashdrv_status_t rc;
1000:Generated_Source\PSoC4/cy_em_eeprom.c **** 
1001:Generated_Source\PSoC4/cy_em_eeprom.c ****             do
1002:Generated_Source\PSoC4/cy_em_eeprom.c ****             {
1003:Generated_Source\PSoC4/cy_em_eeprom.c ****                 CyDelay(1u);                         /* Wait 1ms */
1004:Generated_Source\PSoC4/cy_em_eeprom.c ****                 rc = Cy_Flash_IsWriteComplete();     /* Check if write completed */
1005:Generated_Source\PSoC4/cy_em_eeprom.c ****                 countMs--;
1006:Generated_Source\PSoC4/cy_em_eeprom.c ****             }
1007:Generated_Source\PSoC4/cy_em_eeprom.c ****             while ((rc == CY_FLASH_DRV_OPCODE_BUSY) && (0u != countMs));
1008:Generated_Source\PSoC4/cy_em_eeprom.c **** 
1009:Generated_Source\PSoC4/cy_em_eeprom.c ****             if(CY_FLASH_DRV_SUCCESS == rc)
1010:Generated_Source\PSoC4/cy_em_eeprom.c ****             {
1011:Generated_Source\PSoC4/cy_em_eeprom.c ****                 ret = CY_EM_EEPROM_SUCCESS;
1012:Generated_Source\PSoC4/cy_em_eeprom.c ****             }
1013:Generated_Source\PSoC4/cy_em_eeprom.c ****         }
1014:Generated_Source\PSoC4/cy_em_eeprom.c ****     }
1015:Generated_Source\PSoC4/cy_em_eeprom.c **** #endif /* (CY_PSOC6) */
1016:Generated_Source\PSoC4/cy_em_eeprom.c **** 
1017:Generated_Source\PSoC4/cy_em_eeprom.c ****     return (ret);
1018:Generated_Source\PSoC4/cy_em_eeprom.c **** }
1019:Generated_Source\PSoC4/cy_em_eeprom.c **** 
1020:Generated_Source\PSoC4/cy_em_eeprom.c **** 
1021:Generated_Source\PSoC4/cy_em_eeprom.c **** /*******************************************************************************
1022:Generated_Source\PSoC4/cy_em_eeprom.c **** * Function Name: EraseRow
1023:Generated_Source\PSoC4/cy_em_eeprom.c **** ****************************************************************************//**
1024:Generated_Source\PSoC4/cy_em_eeprom.c **** *
1025:Generated_Source\PSoC4/cy_em_eeprom.c **** * Erases one flash row starting from the specified row address. If the redundant
1026:Generated_Source\PSoC4/cy_em_eeprom.c **** * copy option is enabled the corresponding row in the redundant copy will also
ARM GAS  C:\Users\nbutts\AppData\Local\Temp\ccrYYXbt.s 			page 26


1027:Generated_Source\PSoC4/cy_em_eeprom.c **** * be erased.
1028:Generated_Source\PSoC4/cy_em_eeprom.c **** *
1029:Generated_Source\PSoC4/cy_em_eeprom.c **** * \param rowAdd
1030:Generated_Source\PSoC4/cy_em_eeprom.c **** * The address of the flash row.
1031:Generated_Source\PSoC4/cy_em_eeprom.c **** *
1032:Generated_Source\PSoC4/cy_em_eeprom.c **** * \param ramBuffAddr
1033:Generated_Source\PSoC4/cy_em_eeprom.c **** * The address of the RAM buffer that contains zeroed data (used only for
1034:Generated_Source\PSoC4/cy_em_eeprom.c **** * non-PSoC 6 devices).
1035:Generated_Source\PSoC4/cy_em_eeprom.c **** *
1036:Generated_Source\PSoC4/cy_em_eeprom.c **** * \param context
1037:Generated_Source\PSoC4/cy_em_eeprom.c **** * The pointer to the EEPROM context structure \ref cy_stc_eeprom_context_t.
1038:Generated_Source\PSoC4/cy_em_eeprom.c **** *
1039:Generated_Source\PSoC4/cy_em_eeprom.c **** * \return
1040:Generated_Source\PSoC4/cy_em_eeprom.c **** * error / status code. See \ref cy_en_em_eeprom_status_t.
1041:Generated_Source\PSoC4/cy_em_eeprom.c **** *
1042:Generated_Source\PSoC4/cy_em_eeprom.c **** *******************************************************************************/
1043:Generated_Source\PSoC4/cy_em_eeprom.c **** static cy_en_em_eeprom_status_t EraseRow(uint32 rowAddr, uint32 ramBuffAddr,
1044:Generated_Source\PSoC4/cy_em_eeprom.c ****     cy_stc_eeprom_context_t * context)
1045:Generated_Source\PSoC4/cy_em_eeprom.c **** {
1046:Generated_Source\PSoC4/cy_em_eeprom.c ****     uint32 emEepromRowAddr = rowAddr;
1047:Generated_Source\PSoC4/cy_em_eeprom.c ****     cy_en_em_eeprom_status_t ret = CY_EM_EEPROM_WRITE_FAIL;
1048:Generated_Source\PSoC4/cy_em_eeprom.c **** #if (CY_PSOC6)
1049:Generated_Source\PSoC4/cy_em_eeprom.c ****     uint32 i = 1u;
1050:Generated_Source\PSoC4/cy_em_eeprom.c **** 
1051:Generated_Source\PSoC4/cy_em_eeprom.c ****     ramBuffAddr = ramBuffAddr; /* To avoid compiler warning */
1052:Generated_Source\PSoC4/cy_em_eeprom.c **** 
1053:Generated_Source\PSoC4/cy_em_eeprom.c ****     if(0u != context->redundantCopy)
1054:Generated_Source\PSoC4/cy_em_eeprom.c ****     {
1055:Generated_Source\PSoC4/cy_em_eeprom.c ****         i++;
1056:Generated_Source\PSoC4/cy_em_eeprom.c ****     }
1057:Generated_Source\PSoC4/cy_em_eeprom.c **** 
1058:Generated_Source\PSoC4/cy_em_eeprom.c ****     do
1059:Generated_Source\PSoC4/cy_em_eeprom.c ****     {
1060:Generated_Source\PSoC4/cy_em_eeprom.c ****         if(0u != context->blockingWrite)
1061:Generated_Source\PSoC4/cy_em_eeprom.c ****         {
1062:Generated_Source\PSoC4/cy_em_eeprom.c ****             /* Erase the flash row */
1063:Generated_Source\PSoC4/cy_em_eeprom.c ****             if(CY_FLASH_DRV_SUCCESS == Cy_Flash_EraseRow(emEepromRowAddr))
1064:Generated_Source\PSoC4/cy_em_eeprom.c ****             {
1065:Generated_Source\PSoC4/cy_em_eeprom.c ****                 ret = CY_EM_EEPROM_SUCCESS;
1066:Generated_Source\PSoC4/cy_em_eeprom.c ****             }
1067:Generated_Source\PSoC4/cy_em_eeprom.c ****         }
1068:Generated_Source\PSoC4/cy_em_eeprom.c ****         else
1069:Generated_Source\PSoC4/cy_em_eeprom.c ****         {
1070:Generated_Source\PSoC4/cy_em_eeprom.c ****             /* Initiate erase */
1071:Generated_Source\PSoC4/cy_em_eeprom.c ****             if(CY_FLASH_DRV_OPERATION_STARTED == Cy_Flash_StartErase(emEepromRowAddr))
1072:Generated_Source\PSoC4/cy_em_eeprom.c ****             {
1073:Generated_Source\PSoC4/cy_em_eeprom.c ****                 uint32 countMs = CY_EM_EEPROM_MAX_WRITE_DURATION_MS;
1074:Generated_Source\PSoC4/cy_em_eeprom.c ****                 cy_en_flashdrv_status_t rc;
1075:Generated_Source\PSoC4/cy_em_eeprom.c **** 
1076:Generated_Source\PSoC4/cy_em_eeprom.c ****                 do
1077:Generated_Source\PSoC4/cy_em_eeprom.c ****                 {
1078:Generated_Source\PSoC4/cy_em_eeprom.c ****                     CyDelay(1u);                         /* Wait 1ms */
1079:Generated_Source\PSoC4/cy_em_eeprom.c ****                     rc = Cy_Flash_IsWriteComplete();     /* Check if erase completed */
1080:Generated_Source\PSoC4/cy_em_eeprom.c ****                     countMs--;
1081:Generated_Source\PSoC4/cy_em_eeprom.c ****                 }
1082:Generated_Source\PSoC4/cy_em_eeprom.c ****                 while ((rc == CY_FLASH_DRV_OPCODE_BUSY) && (0u != countMs));
1083:Generated_Source\PSoC4/cy_em_eeprom.c **** 
ARM GAS  C:\Users\nbutts\AppData\Local\Temp\ccrYYXbt.s 			page 27


1084:Generated_Source\PSoC4/cy_em_eeprom.c ****                 if(CY_FLASH_DRV_SUCCESS == rc)
1085:Generated_Source\PSoC4/cy_em_eeprom.c ****                 {
1086:Generated_Source\PSoC4/cy_em_eeprom.c ****                     ret = CY_EM_EEPROM_SUCCESS;
1087:Generated_Source\PSoC4/cy_em_eeprom.c ****                 }
1088:Generated_Source\PSoC4/cy_em_eeprom.c ****             }
1089:Generated_Source\PSoC4/cy_em_eeprom.c ****         }
1090:Generated_Source\PSoC4/cy_em_eeprom.c **** 
1091:Generated_Source\PSoC4/cy_em_eeprom.c ****         if(CY_EM_EEPROM_SUCCESS == ret)
1092:Generated_Source\PSoC4/cy_em_eeprom.c ****         {
1093:Generated_Source\PSoC4/cy_em_eeprom.c ****             /* Update the address to point to the redundant copy row */
1094:Generated_Source\PSoC4/cy_em_eeprom.c ****             emEepromRowAddr = (emEepromRowAddr - context->userFlashStartAddr) + context->wlEndAddr;
1095:Generated_Source\PSoC4/cy_em_eeprom.c ****         }
1096:Generated_Source\PSoC4/cy_em_eeprom.c ****         else
1097:Generated_Source\PSoC4/cy_em_eeprom.c ****         {
1098:Generated_Source\PSoC4/cy_em_eeprom.c ****             break;
1099:Generated_Source\PSoC4/cy_em_eeprom.c ****         }
1100:Generated_Source\PSoC4/cy_em_eeprom.c ****         i--;
1101:Generated_Source\PSoC4/cy_em_eeprom.c ****     } while (0u != i);
1102:Generated_Source\PSoC4/cy_em_eeprom.c **** #else
1103:Generated_Source\PSoC4/cy_em_eeprom.c ****     /* Write the data to the specified flash row */
1104:Generated_Source\PSoC4/cy_em_eeprom.c ****     ret = WriteRow(emEepromRowAddr, (uint32 *)ramBuffAddr, context);
1105:Generated_Source\PSoC4/cy_em_eeprom.c **** 
1106:Generated_Source\PSoC4/cy_em_eeprom.c ****     if((CY_EM_EEPROM_SUCCESS == ret) && (0u != context->redundantCopy))
1107:Generated_Source\PSoC4/cy_em_eeprom.c ****     {
1108:Generated_Source\PSoC4/cy_em_eeprom.c ****         /* Update the address to point to the redundant copy row */
1109:Generated_Source\PSoC4/cy_em_eeprom.c ****         emEepromRowAddr = (emEepromRowAddr - context->userFlashStartAddr) + context->wlEndAddr;
1110:Generated_Source\PSoC4/cy_em_eeprom.c ****         ret = WriteRow(emEepromRowAddr, (uint32 *)ramBuffAddr, context);
1111:Generated_Source\PSoC4/cy_em_eeprom.c ****     }
1112:Generated_Source\PSoC4/cy_em_eeprom.c **** 
1113:Generated_Source\PSoC4/cy_em_eeprom.c ****     if(CY_EM_EEPROM_SUCCESS == ret)
1114:Generated_Source\PSoC4/cy_em_eeprom.c ****     {
1115:Generated_Source\PSoC4/cy_em_eeprom.c ****         context->lastWrRowAddr = rowAddr;
1116:Generated_Source\PSoC4/cy_em_eeprom.c ****     }
1117:Generated_Source\PSoC4/cy_em_eeprom.c **** #endif /* (CY_PSOC6) */
1118:Generated_Source\PSoC4/cy_em_eeprom.c **** 
1119:Generated_Source\PSoC4/cy_em_eeprom.c ****     return(ret);
1120:Generated_Source\PSoC4/cy_em_eeprom.c **** }
1121:Generated_Source\PSoC4/cy_em_eeprom.c **** 
1122:Generated_Source\PSoC4/cy_em_eeprom.c **** 
1123:Generated_Source\PSoC4/cy_em_eeprom.c **** /*******************************************************************************
1124:Generated_Source\PSoC4/cy_em_eeprom.c **** * Function Name: CheckCrcAndCopy
1125:Generated_Source\PSoC4/cy_em_eeprom.c **** ****************************************************************************//**
1126:Generated_Source\PSoC4/cy_em_eeprom.c **** *
1127:Generated_Source\PSoC4/cy_em_eeprom.c **** * Checks the checksum of the specific row in EEPROM. If the CRC matches - copies
1128:Generated_Source\PSoC4/cy_em_eeprom.c **** * the data to the "datAddr" from EEPROM. f the CRC does not match checks the
1129:Generated_Source\PSoC4/cy_em_eeprom.c **** * CRC of the corresponding row in the EEPROM's redundant copy. If the CRC
1130:Generated_Source\PSoC4/cy_em_eeprom.c **** * matches - copies the data to the "datAddr" from EEPROM redundant copy. If the
1131:Generated_Source\PSoC4/cy_em_eeprom.c **** * CRC of the redundant copy does not match - returns bad checksum.
1132:Generated_Source\PSoC4/cy_em_eeprom.c **** *
1133:Generated_Source\PSoC4/cy_em_eeprom.c **** * \param startAddr
1134:Generated_Source\PSoC4/cy_em_eeprom.c **** * The address that points to the start of the specified row.
1135:Generated_Source\PSoC4/cy_em_eeprom.c **** *
1136:Generated_Source\PSoC4/cy_em_eeprom.c **** * \param datAddr
1137:Generated_Source\PSoC4/cy_em_eeprom.c **** * The start address of where the row data will be copied if the CRC check
1138:Generated_Source\PSoC4/cy_em_eeprom.c **** * will succeed.
1139:Generated_Source\PSoC4/cy_em_eeprom.c **** *
1140:Generated_Source\PSoC4/cy_em_eeprom.c **** * \param rowOffset
ARM GAS  C:\Users\nbutts\AppData\Local\Temp\ccrYYXbt.s 			page 28


1141:Generated_Source\PSoC4/cy_em_eeprom.c **** * The offset in the row from which the data should be copied.
1142:Generated_Source\PSoC4/cy_em_eeprom.c **** *
1143:Generated_Source\PSoC4/cy_em_eeprom.c **** * \param numBytes
1144:Generated_Source\PSoC4/cy_em_eeprom.c **** * The number of bytes to be copied.
1145:Generated_Source\PSoC4/cy_em_eeprom.c **** *
1146:Generated_Source\PSoC4/cy_em_eeprom.c **** * \param context
1147:Generated_Source\PSoC4/cy_em_eeprom.c **** * The pointer to the EEPROM context structure \ref cy_stc_eeprom_context_t.
1148:Generated_Source\PSoC4/cy_em_eeprom.c **** *
1149:Generated_Source\PSoC4/cy_em_eeprom.c **** * \return
1150:Generated_Source\PSoC4/cy_em_eeprom.c **** * error / status code. See \ref cy_en_em_eeprom_status_t.
1151:Generated_Source\PSoC4/cy_em_eeprom.c **** *
1152:Generated_Source\PSoC4/cy_em_eeprom.c **** * \note
1153:Generated_Source\PSoC4/cy_em_eeprom.c **** * This function uses a buffer of the flash row size to perform read
1154:Generated_Source\PSoC4/cy_em_eeprom.c **** * operation. For the size of the row refer to the specific PSoC device
1155:Generated_Source\PSoC4/cy_em_eeprom.c **** * datasheet.
1156:Generated_Source\PSoC4/cy_em_eeprom.c **** *
1157:Generated_Source\PSoC4/cy_em_eeprom.c **** *******************************************************************************/
1158:Generated_Source\PSoC4/cy_em_eeprom.c **** static cy_en_em_eeprom_status_t CheckCrcAndCopy(uint32 startAddr,
1159:Generated_Source\PSoC4/cy_em_eeprom.c ****     uint32 dstAddr, uint32 rowOffset, uint32 numBytes, cy_stc_eeprom_context_t * context)
1160:Generated_Source\PSoC4/cy_em_eeprom.c **** {
1161:Generated_Source\PSoC4/cy_em_eeprom.c ****     cy_en_em_eeprom_status_t ret;
1162:Generated_Source\PSoC4/cy_em_eeprom.c ****     uint32 writeRamBuffer[CY_EM_EEPROM_FLASH_SIZEOF_ROW / CY_EM_EEPROM_U32_DIV];
1163:Generated_Source\PSoC4/cy_em_eeprom.c **** 
1164:Generated_Source\PSoC4/cy_em_eeprom.c ****     /* Calculate the row address in the EEPROM's redundant copy */
1165:Generated_Source\PSoC4/cy_em_eeprom.c ****     uint32 rcStartRowAddr = (startAddr - context->userFlashStartAddr) + context->wlEndAddr;
1166:Generated_Source\PSoC4/cy_em_eeprom.c **** 
1167:Generated_Source\PSoC4/cy_em_eeprom.c ****     /* Check the row data CRC in the EEPROM */
1168:Generated_Source\PSoC4/cy_em_eeprom.c ****     if((*(uint32 *)(startAddr + CY_EM_EEPROM_HEADER_CHECKSUM_OFFSET)) ==
1169:Generated_Source\PSoC4/cy_em_eeprom.c ****         ((uint32) CalcChecksum((uint8 *)(startAddr + CY_EM_EEPROM_EEPROM_DATA_OFFSET),
1170:Generated_Source\PSoC4/cy_em_eeprom.c ****             CY_EM_EEPROM_EEPROM_DATA_LEN)))
1171:Generated_Source\PSoC4/cy_em_eeprom.c ****     {
1172:Generated_Source\PSoC4/cy_em_eeprom.c ****         (void)memcpy((void *)(dstAddr), (void *)(startAddr + rowOffset), numBytes);
1173:Generated_Source\PSoC4/cy_em_eeprom.c **** 
1174:Generated_Source\PSoC4/cy_em_eeprom.c ****         ret = CY_EM_EEPROM_SUCCESS;
1175:Generated_Source\PSoC4/cy_em_eeprom.c ****     }
1176:Generated_Source\PSoC4/cy_em_eeprom.c ****     /* Check the row data CRC in the EEPROM's redundant copy */
1177:Generated_Source\PSoC4/cy_em_eeprom.c ****     else if((*(uint32 *)(rcStartRowAddr + CY_EM_EEPROM_HEADER_CHECKSUM_OFFSET)) ==
1178:Generated_Source\PSoC4/cy_em_eeprom.c ****             ((uint32) CalcChecksum((uint8 *)(rcStartRowAddr + CY_EM_EEPROM_EEPROM_DATA_OFFSET),
1179:Generated_Source\PSoC4/cy_em_eeprom.c ****                 CY_EM_EEPROM_EEPROM_DATA_LEN)))
1180:Generated_Source\PSoC4/cy_em_eeprom.c ****     {
1181:Generated_Source\PSoC4/cy_em_eeprom.c ****         /* Copy the redundant copy row to RAM buffer to avoid read while write (RWW)
1182:Generated_Source\PSoC4/cy_em_eeprom.c ****         * flash exception. The RWW occurs while trying to write and read the data from
1183:Generated_Source\PSoC4/cy_em_eeprom.c ****         * same flash macro.
1184:Generated_Source\PSoC4/cy_em_eeprom.c ****         */
1185:Generated_Source\PSoC4/cy_em_eeprom.c ****         (void)memcpy((void *)(writeRamBuffer), (void *)(rcStartRowAddr), CY_EM_EEPROM_FLASH_SIZEOF_
1186:Generated_Source\PSoC4/cy_em_eeprom.c **** 
1187:Generated_Source\PSoC4/cy_em_eeprom.c ****         /* Restore bad row data from the RAM buffer */
1188:Generated_Source\PSoC4/cy_em_eeprom.c ****         ret = WriteRow(startAddr, (uint32 *)writeRamBuffer, context);
1189:Generated_Source\PSoC4/cy_em_eeprom.c **** 
1190:Generated_Source\PSoC4/cy_em_eeprom.c ****         if(CY_EM_EEPROM_SUCCESS == ret)
1191:Generated_Source\PSoC4/cy_em_eeprom.c ****         {
1192:Generated_Source\PSoC4/cy_em_eeprom.c ****             (void)memcpy((void *)(dstAddr), (void *)(writeRamBuffer + rowOffset), numBytes);
1193:Generated_Source\PSoC4/cy_em_eeprom.c ****         }
1194:Generated_Source\PSoC4/cy_em_eeprom.c ****     }
1195:Generated_Source\PSoC4/cy_em_eeprom.c ****     else
1196:Generated_Source\PSoC4/cy_em_eeprom.c ****     {
1197:Generated_Source\PSoC4/cy_em_eeprom.c ****         ret = CY_EM_EEPROM_BAD_CHECKSUM;
ARM GAS  C:\Users\nbutts\AppData\Local\Temp\ccrYYXbt.s 			page 29


1198:Generated_Source\PSoC4/cy_em_eeprom.c ****     }
1199:Generated_Source\PSoC4/cy_em_eeprom.c **** 
1200:Generated_Source\PSoC4/cy_em_eeprom.c ****     return(ret);
1201:Generated_Source\PSoC4/cy_em_eeprom.c **** }
1202:Generated_Source\PSoC4/cy_em_eeprom.c **** 
1203:Generated_Source\PSoC4/cy_em_eeprom.c **** 
1204:Generated_Source\PSoC4/cy_em_eeprom.c **** /*******************************************************************************
1205:Generated_Source\PSoC4/cy_em_eeprom.c **** * Function Name: GetAddresses
1206:Generated_Source\PSoC4/cy_em_eeprom.c **** ****************************************************************************//**
1207:Generated_Source\PSoC4/cy_em_eeprom.c **** *
1208:Generated_Source\PSoC4/cy_em_eeprom.c **** * Calculates the start and end address of the row's EEPROM data to be updated.
1209:Generated_Source\PSoC4/cy_em_eeprom.c **** * The start and end are not absolute addresses but a relative addresses in a
1210:Generated_Source\PSoC4/cy_em_eeprom.c **** * flash row.
1211:Generated_Source\PSoC4/cy_em_eeprom.c **** *
1212:Generated_Source\PSoC4/cy_em_eeprom.c **** * \param startAddr
1213:Generated_Source\PSoC4/cy_em_eeprom.c **** * The pointer the address where the EEPROM data start address will be returned.
1214:Generated_Source\PSoC4/cy_em_eeprom.c **** *
1215:Generated_Source\PSoC4/cy_em_eeprom.c **** * \param endAddr
1216:Generated_Source\PSoC4/cy_em_eeprom.c **** * The pointer the address where the EEPROM data end address will be returned.
1217:Generated_Source\PSoC4/cy_em_eeprom.c **** *
1218:Generated_Source\PSoC4/cy_em_eeprom.c **** * \param offset
1219:Generated_Source\PSoC4/cy_em_eeprom.c **** * The pointer the address where the calculated offset of the EEPROM header data
1220:Generated_Source\PSoC4/cy_em_eeprom.c **** * will be returned.
1221:Generated_Source\PSoC4/cy_em_eeprom.c **** *
1222:Generated_Source\PSoC4/cy_em_eeprom.c **** * \param rowNum
1223:Generated_Source\PSoC4/cy_em_eeprom.c **** * The row number that is about to be written.
1224:Generated_Source\PSoC4/cy_em_eeprom.c **** *
1225:Generated_Source\PSoC4/cy_em_eeprom.c **** * \param addr
1226:Generated_Source\PSoC4/cy_em_eeprom.c **** * The address of the EEPROM header data in the currently analyzed row that may
1227:Generated_Source\PSoC4/cy_em_eeprom.c **** * concern to the row about to be written.
1228:Generated_Source\PSoC4/cy_em_eeprom.c **** *
1229:Generated_Source\PSoC4/cy_em_eeprom.c **** * \param len
1230:Generated_Source\PSoC4/cy_em_eeprom.c **** * The length of the EEPROM header data in the currently analyzed row that may
1231:Generated_Source\PSoC4/cy_em_eeprom.c **** * concern to the row about to be written.
1232:Generated_Source\PSoC4/cy_em_eeprom.c **** *
1233:Generated_Source\PSoC4/cy_em_eeprom.c **** * \return
1234:Generated_Source\PSoC4/cy_em_eeprom.c **** * Zero indicates that the currently analyzed row has the data to be written to
1235:Generated_Source\PSoC4/cy_em_eeprom.c **** * the active EEPROM row data locations. Non zero value indicates that there is
1236:Generated_Source\PSoC4/cy_em_eeprom.c **** * no data to be written
1237:Generated_Source\PSoC4/cy_em_eeprom.c **** *
1238:Generated_Source\PSoC4/cy_em_eeprom.c **** *******************************************************************************/
1239:Generated_Source\PSoC4/cy_em_eeprom.c **** static uint32 GetAddresses(uint32 *startAddr, uint32 *endAddr, uint32 *offset, uint32 rowNum,
1240:Generated_Source\PSoC4/cy_em_eeprom.c ****     uint32 addr, uint32 len)
1241:Generated_Source\PSoC4/cy_em_eeprom.c **** {
 387              		.loc 1 1241 0
 388              		.cfi_startproc
 389              		@ args = 8, pretend = 0, frame = 0
 390              		@ frame_needed = 0, uses_anonymous_args = 0
 391              	.LVL51:
 392 0000 F0B5     		push	{r4, r5, r6, r7, lr}
 393              		.cfi_def_cfa_offset 20
 394              		.cfi_offset 4, -20
 395              		.cfi_offset 5, -16
 396              		.cfi_offset 6, -12
 397              		.cfi_offset 7, -8
 398              		.cfi_offset 14, -4
 399 0002 059C     		ldr	r4, [sp, #20]
ARM GAS  C:\Users\nbutts\AppData\Local\Temp\ccrYYXbt.s 			page 30


 400              	.LVL52:
1242:Generated_Source\PSoC4/cy_em_eeprom.c ****     uint32 skip = 0u;
1243:Generated_Source\PSoC4/cy_em_eeprom.c **** 
1244:Generated_Source\PSoC4/cy_em_eeprom.c ****     *offset =0u;
 401              		.loc 1 1244 0
 402 0004 0025     		movs	r5, #0
 403 0006 1560     		str	r5, [r2]
1245:Generated_Source\PSoC4/cy_em_eeprom.c **** 
1246:Generated_Source\PSoC4/cy_em_eeprom.c ****     if(0u != CY_EM_EEPROM_IS_ADDR_IN_ROW_RANGE(addr, rowNum))
 404              		.loc 1 1246 0
 405 0008 9D01     		lsls	r5, r3, #6
 406 000a A542     		cmp	r5, r4
 407 000c 06D8     		bhi	.L37
 408              		.loc 1 1246 0 is_stmt 0 discriminator 1
 409 000e 5E1C     		adds	r6, r3, #1
 410 0010 B601     		lsls	r6, r6, #6
 411 0012 013E     		subs	r6, r6, #1
 412 0014 B442     		cmp	r4, r6
 413 0016 03D9     		bls	.L38
 414              		.loc 1 1246 0
 415 0018 0026     		movs	r6, #0
 416 001a 02E0     		b	.L31
 417              	.L37:
 418 001c 0026     		movs	r6, #0
 419 001e 00E0     		b	.L31
 420              	.L38:
 421 0020 0126     		movs	r6, #1
 422              	.L31:
 423              		.loc 1 1246 0 discriminator 6
 424 0022 002E     		cmp	r6, #0
 425 0024 1ED0     		beq	.L32
1247:Generated_Source\PSoC4/cy_em_eeprom.c ****     {
1248:Generated_Source\PSoC4/cy_em_eeprom.c ****         *startAddr = CY_EM_EEPROM_EEPROM_DATA_LEN + (addr % CY_EM_EEPROM_EEPROM_DATA_LEN);
 426              		.loc 1 1248 0 is_stmt 1
 427 0026 3F22     		movs	r2, #63
 428              	.LVL53:
 429 0028 2240     		ands	r2, r4
 430 002a 4032     		adds	r2, r2, #64
 431 002c 0260     		str	r2, [r0]
1249:Generated_Source\PSoC4/cy_em_eeprom.c **** 
1250:Generated_Source\PSoC4/cy_em_eeprom.c ****         if(0u != CY_EM_EEPROM_IS_ADDR_IN_ROW_RANGE(addr + len, rowNum))
 432              		.loc 1 1250 0
 433 002e 0698     		ldr	r0, [sp, #24]
 434              	.LVL54:
 435 0030 8446     		mov	ip, r0
 436 0032 6444     		add	r4, r4, ip
 437 0034 A542     		cmp	r5, r4
 438 0036 06D8     		bhi	.L39
 439              		.loc 1 1250 0 is_stmt 0 discriminator 1
 440 0038 0133     		adds	r3, r3, #1
 441              	.LVL55:
 442 003a 9B01     		lsls	r3, r3, #6
 443              	.LVL56:
 444 003c 013B     		subs	r3, r3, #1
 445 003e 9C42     		cmp	r4, r3
 446 0040 03D9     		bls	.L40
 447              		.loc 1 1250 0
ARM GAS  C:\Users\nbutts\AppData\Local\Temp\ccrYYXbt.s 			page 31


 448 0042 0023     		movs	r3, #0
 449 0044 02E0     		b	.L33
 450              	.LVL57:
 451              	.L39:
 452 0046 0023     		movs	r3, #0
 453              	.LVL58:
 454 0048 00E0     		b	.L33
 455              	.L40:
 456 004a 0123     		movs	r3, #1
 457              	.L33:
 458              		.loc 1 1250 0 discriminator 6
 459 004c 002B     		cmp	r3, #0
 460 004e 05D0     		beq	.L34
1251:Generated_Source\PSoC4/cy_em_eeprom.c ****         {
1252:Generated_Source\PSoC4/cy_em_eeprom.c ****             *endAddr = *startAddr + len;
 461              		.loc 1 1252 0 is_stmt 1
 462 0050 069B     		ldr	r3, [sp, #24]
 463 0052 9C46     		mov	ip, r3
 464 0054 6244     		add	r2, r2, ip
 465 0056 0A60     		str	r2, [r1]
1242:Generated_Source\PSoC4/cy_em_eeprom.c **** 
 466              		.loc 1 1242 0
 467 0058 0020     		movs	r0, #0
 468 005a 21E0     		b	.L35
 469              	.L34:
1253:Generated_Source\PSoC4/cy_em_eeprom.c ****         }
1254:Generated_Source\PSoC4/cy_em_eeprom.c ****         else
1255:Generated_Source\PSoC4/cy_em_eeprom.c ****         {
1256:Generated_Source\PSoC4/cy_em_eeprom.c ****             *endAddr = CY_EM_EEPROM_FLASH_SIZEOF_ROW;
 470              		.loc 1 1256 0
 471 005c 8023     		movs	r3, #128
 472 005e 0B60     		str	r3, [r1]
1242:Generated_Source\PSoC4/cy_em_eeprom.c **** 
 473              		.loc 1 1242 0
 474 0060 0020     		movs	r0, #0
 475 0062 1DE0     		b	.L35
 476              	.LVL59:
 477              	.L32:
1257:Generated_Source\PSoC4/cy_em_eeprom.c ****         }
1258:Generated_Source\PSoC4/cy_em_eeprom.c ****     }
1259:Generated_Source\PSoC4/cy_em_eeprom.c ****     else
1260:Generated_Source\PSoC4/cy_em_eeprom.c ****     {
1261:Generated_Source\PSoC4/cy_em_eeprom.c **** 
1262:Generated_Source\PSoC4/cy_em_eeprom.c ****         if(0u != CY_EM_EEPROM_IS_ADDR_IN_ROW_RANGE(addr + len, rowNum))
 478              		.loc 1 1262 0
 479 0064 069F     		ldr	r7, [sp, #24]
 480 0066 E719     		adds	r7, r4, r7
 481 0068 BD42     		cmp	r5, r7
 482 006a 05D8     		bhi	.L36
 483              		.loc 1 1262 0 is_stmt 0 discriminator 1
 484 006c 0133     		adds	r3, r3, #1
 485              	.LVL60:
 486 006e 9B01     		lsls	r3, r3, #6
 487              	.LVL61:
 488 0070 013B     		subs	r3, r3, #1
 489 0072 9F42     		cmp	r7, r3
 490 0074 00D8     		bhi	.L36
ARM GAS  C:\Users\nbutts\AppData\Local\Temp\ccrYYXbt.s 			page 32


 491              		.loc 1 1262 0
 492 0076 0126     		movs	r6, #1
 493              	.L36:
 494              		.loc 1 1262 0 discriminator 6
 495 0078 002E     		cmp	r6, #0
 496 007a 10D0     		beq	.L42
1263:Generated_Source\PSoC4/cy_em_eeprom.c ****         {
1264:Generated_Source\PSoC4/cy_em_eeprom.c ****             *startAddr = CY_EM_EEPROM_EEPROM_DATA_LEN;
 497              		.loc 1 1264 0 is_stmt 1
 498 007c 4023     		movs	r3, #64
 499 007e 0360     		str	r3, [r0]
1265:Generated_Source\PSoC4/cy_em_eeprom.c ****             *endAddr = (*startAddr + len) - (*startAddr - (addr % CY_EM_EEPROM_EEPROM_DATA_LEN));
 500              		.loc 1 1265 0
 501 0080 069B     		ldr	r3, [sp, #24]
 502 0082 4033     		adds	r3, r3, #64
 503 0084 3F25     		movs	r5, #63
 504 0086 2C40     		ands	r4, r5
 505 0088 403C     		subs	r4, r4, #64
 506 008a 1C19     		adds	r4, r3, r4
 507 008c 0C60     		str	r4, [r1]
1266:Generated_Source\PSoC4/cy_em_eeprom.c ****             *offset = len - (*endAddr - *startAddr);
 508              		.loc 1 1266 0
 509 008e 0368     		ldr	r3, [r0]
 510 0090 1C1B     		subs	r4, r3, r4
 511 0092 069B     		ldr	r3, [sp, #24]
 512 0094 9C46     		mov	ip, r3
 513 0096 6444     		add	r4, r4, ip
 514 0098 1460     		str	r4, [r2]
1242:Generated_Source\PSoC4/cy_em_eeprom.c **** 
 515              		.loc 1 1242 0
 516 009a 0020     		movs	r0, #0
 517              	.LVL62:
 518 009c 00E0     		b	.L35
 519              	.LVL63:
 520              	.L42:
1267:Generated_Source\PSoC4/cy_em_eeprom.c ****         }
1268:Generated_Source\PSoC4/cy_em_eeprom.c ****         else
1269:Generated_Source\PSoC4/cy_em_eeprom.c ****         {
1270:Generated_Source\PSoC4/cy_em_eeprom.c ****             skip++;
 521              		.loc 1 1270 0
 522 009e 0120     		movs	r0, #1
 523              	.LVL64:
 524              	.L35:
1271:Generated_Source\PSoC4/cy_em_eeprom.c ****         }
1272:Generated_Source\PSoC4/cy_em_eeprom.c ****     }
1273:Generated_Source\PSoC4/cy_em_eeprom.c **** 
1274:Generated_Source\PSoC4/cy_em_eeprom.c ****     return (skip);
1275:Generated_Source\PSoC4/cy_em_eeprom.c **** }
 525              		.loc 1 1275 0
 526              		@ sp needed
 527 00a0 F0BD     		pop	{r4, r5, r6, r7, pc}
 528              		.cfi_endproc
 529              	.LFE14:
 530              		.size	GetAddresses, .-GetAddresses
 531 00a2 C046     		.section	.text.WriteRow,"ax",%progbits
 532              		.align	2
 533              		.code	16
ARM GAS  C:\Users\nbutts\AppData\Local\Temp\ccrYYXbt.s 			page 33


 534              		.thumb_func
 535              		.type	WriteRow, %function
 536              	WriteRow:
 537              	.LFB11:
 953:Generated_Source\PSoC4/cy_em_eeprom.c ****     cy_en_em_eeprom_status_t ret = CY_EM_EEPROM_WRITE_FAIL;
 538              		.loc 1 953 0
 539              		.cfi_startproc
 540              		@ args = 0, pretend = 0, frame = 0
 541              		@ frame_needed = 0, uses_anonymous_args = 0
 542              	.LVL65:
 543 0000 10B5     		push	{r4, lr}
 544              		.cfi_def_cfa_offset 8
 545              		.cfi_offset 4, -8
 546              		.cfi_offset 14, -4
 547              	.LVL66:
 969:Generated_Source\PSoC4/cy_em_eeprom.c **** 
 548              		.loc 1 969 0
 549 0002 C009     		lsrs	r0, r0, #7
 550              	.LVL67:
 551 0004 FF23     		movs	r3, #255
 552 0006 1840     		ands	r0, r3
 553              	.LVL68:
 973:Generated_Source\PSoC4/cy_em_eeprom.c ****     #else
 554              		.loc 1 973 0
 555 0008 FFF7FEFF 		bl	CySysFlashWriteRow
 556              	.LVL69:
 980:Generated_Source\PSoC4/cy_em_eeprom.c ****     {
 557              		.loc 1 980 0
 558 000c 0028     		cmp	r0, #0
 559 000e 01D0     		beq	.L45
 954:Generated_Source\PSoC4/cy_em_eeprom.c **** #if (!CY_PSOC6)
 560              		.loc 1 954 0
 561 0010 0420     		movs	r0, #4
 562              	.LVL70:
 563 0012 00E0     		b	.L44
 564              	.LVL71:
 565              	.L45:
 982:Generated_Source\PSoC4/cy_em_eeprom.c ****     }
 566              		.loc 1 982 0
 567 0014 0020     		movs	r0, #0
 568              	.LVL72:
 569              	.L44:
1018:Generated_Source\PSoC4/cy_em_eeprom.c **** 
 570              		.loc 1 1018 0
 571              		@ sp needed
 572 0016 10BD     		pop	{r4, pc}
 573              		.cfi_endproc
 574              	.LFE11:
 575              		.size	WriteRow, .-WriteRow
 576              		.section	.text.CheckCrcAndCopy,"ax",%progbits
 577              		.align	2
 578              		.code	16
 579              		.thumb_func
 580              		.type	CheckCrcAndCopy, %function
 581              	CheckCrcAndCopy:
 582              	.LFB13:
1160:Generated_Source\PSoC4/cy_em_eeprom.c ****     cy_en_em_eeprom_status_t ret;
ARM GAS  C:\Users\nbutts\AppData\Local\Temp\ccrYYXbt.s 			page 34


 583              		.loc 1 1160 0
 584              		.cfi_startproc
 585              		@ args = 4, pretend = 0, frame = 144
 586              		@ frame_needed = 0, uses_anonymous_args = 0
 587              	.LVL73:
 588 0000 F0B5     		push	{r4, r5, r6, r7, lr}
 589              		.cfi_def_cfa_offset 20
 590              		.cfi_offset 4, -20
 591              		.cfi_offset 5, -16
 592              		.cfi_offset 6, -12
 593              		.cfi_offset 7, -8
 594              		.cfi_offset 14, -4
 595 0002 A5B0     		sub	sp, sp, #148
 596              		.cfi_def_cfa_offset 168
 597 0004 0600     		movs	r6, r0
 598 0006 0191     		str	r1, [sp, #4]
 599 0008 0292     		str	r2, [sp, #8]
 600 000a 0393     		str	r3, [sp, #12]
 601 000c 2A9F     		ldr	r7, [sp, #168]
1165:Generated_Source\PSoC4/cy_em_eeprom.c **** 
 602              		.loc 1 1165 0
 603 000e BB69     		ldr	r3, [r7, #24]
 604              	.LVL74:
 605 0010 C41A     		subs	r4, r0, r3
 606 0012 3B68     		ldr	r3, [r7]
 607 0014 9C46     		mov	ip, r3
 608 0016 6444     		add	r4, r4, ip
 609              	.LVL75:
1168:Generated_Source\PSoC4/cy_em_eeprom.c ****         ((uint32) CalcChecksum((uint8 *)(startAddr + CY_EM_EEPROM_EEPROM_DATA_OFFSET),
 610              		.loc 1 1168 0
 611 0018 C56B     		ldr	r5, [r0, #60]
1169:Generated_Source\PSoC4/cy_em_eeprom.c ****             CY_EM_EEPROM_EEPROM_DATA_LEN)))
 612              		.loc 1 1169 0
 613 001a 4030     		adds	r0, r0, #64
 614              	.LVL76:
 615 001c 4021     		movs	r1, #64
 616              	.LVL77:
 617 001e FFF7FEFF 		bl	CalcChecksum
 618              	.LVL78:
1168:Generated_Source\PSoC4/cy_em_eeprom.c ****         ((uint32) CalcChecksum((uint8 *)(startAddr + CY_EM_EEPROM_EEPROM_DATA_OFFSET),
 619              		.loc 1 1168 0
 620 0022 8542     		cmp	r5, r0
 621 0024 07D1     		bne	.L47
1172:Generated_Source\PSoC4/cy_em_eeprom.c **** 
 622              		.loc 1 1172 0
 623 0026 029B     		ldr	r3, [sp, #8]
 624 0028 F118     		adds	r1, r6, r3
 625 002a 039A     		ldr	r2, [sp, #12]
 626 002c 0198     		ldr	r0, [sp, #4]
 627 002e FFF7FEFF 		bl	memcpy
 628              	.LVL79:
1174:Generated_Source\PSoC4/cy_em_eeprom.c ****     }
 629              		.loc 1 1174 0
 630 0032 0024     		movs	r4, #0
 631              	.LVL80:
 632 0034 1EE0     		b	.L48
 633              	.LVL81:
ARM GAS  C:\Users\nbutts\AppData\Local\Temp\ccrYYXbt.s 			page 35


 634              	.L47:
1177:Generated_Source\PSoC4/cy_em_eeprom.c ****             ((uint32) CalcChecksum((uint8 *)(rcStartRowAddr + CY_EM_EEPROM_EEPROM_DATA_OFFSET),
 635              		.loc 1 1177 0
 636 0036 E56B     		ldr	r5, [r4, #60]
1178:Generated_Source\PSoC4/cy_em_eeprom.c ****                 CY_EM_EEPROM_EEPROM_DATA_LEN)))
 637              		.loc 1 1178 0
 638 0038 2000     		movs	r0, r4
 639 003a 4030     		adds	r0, r0, #64
 640 003c 4021     		movs	r1, #64
 641 003e FFF7FEFF 		bl	CalcChecksum
 642              	.LVL82:
1177:Generated_Source\PSoC4/cy_em_eeprom.c ****             ((uint32) CalcChecksum((uint8 *)(rcStartRowAddr + CY_EM_EEPROM_EEPROM_DATA_OFFSET),
 643              		.loc 1 1177 0
 644 0042 8542     		cmp	r5, r0
 645 0044 15D1     		bne	.L49
1185:Generated_Source\PSoC4/cy_em_eeprom.c **** 
 646              		.loc 1 1185 0
 647 0046 8022     		movs	r2, #128
 648 0048 2100     		movs	r1, r4
 649 004a 04A8     		add	r0, sp, #16
 650 004c FFF7FEFF 		bl	memcpy
 651              	.LVL83:
1188:Generated_Source\PSoC4/cy_em_eeprom.c **** 
 652              		.loc 1 1188 0
 653 0050 3A00     		movs	r2, r7
 654 0052 04A9     		add	r1, sp, #16
 655 0054 3000     		movs	r0, r6
 656 0056 FFF7FEFF 		bl	WriteRow
 657              	.LVL84:
 658 005a 041E     		subs	r4, r0, #0
 659              	.LVL85:
1190:Generated_Source\PSoC4/cy_em_eeprom.c ****         {
 660              		.loc 1 1190 0
 661 005c 0AD1     		bne	.L48
1192:Generated_Source\PSoC4/cy_em_eeprom.c ****         }
 662              		.loc 1 1192 0
 663 005e 029B     		ldr	r3, [sp, #8]
 664 0060 9900     		lsls	r1, r3, #2
 665 0062 04AB     		add	r3, sp, #16
 666 0064 9C46     		mov	ip, r3
 667 0066 6144     		add	r1, r1, ip
 668 0068 039A     		ldr	r2, [sp, #12]
 669 006a 0198     		ldr	r0, [sp, #4]
 670              	.LVL86:
 671 006c FFF7FEFF 		bl	memcpy
 672              	.LVL87:
 673 0070 00E0     		b	.L48
 674              	.LVL88:
 675              	.L49:
1197:Generated_Source\PSoC4/cy_em_eeprom.c ****     }
 676              		.loc 1 1197 0
 677 0072 0224     		movs	r4, #2
 678              	.LVL89:
 679              	.L48:
1201:Generated_Source\PSoC4/cy_em_eeprom.c **** 
 680              		.loc 1 1201 0
 681 0074 2000     		movs	r0, r4
ARM GAS  C:\Users\nbutts\AppData\Local\Temp\ccrYYXbt.s 			page 36


 682 0076 25B0     		add	sp, sp, #148
 683              		@ sp needed
 684              	.LVL90:
 685              	.LVL91:
 686 0078 F0BD     		pop	{r4, r5, r6, r7, pc}
 687              		.cfi_endproc
 688              	.LFE13:
 689              		.size	CheckCrcAndCopy, .-CheckCrcAndCopy
 690 007a C046     		.section	.text.EraseRow,"ax",%progbits
 691              		.align	2
 692              		.code	16
 693              		.thumb_func
 694              		.type	EraseRow, %function
 695              	EraseRow:
 696              	.LFB12:
1045:Generated_Source\PSoC4/cy_em_eeprom.c ****     uint32 emEepromRowAddr = rowAddr;
 697              		.loc 1 1045 0
 698              		.cfi_startproc
 699              		@ args = 0, pretend = 0, frame = 0
 700              		@ frame_needed = 0, uses_anonymous_args = 0
 701              	.LVL92:
 702 0000 70B5     		push	{r4, r5, r6, lr}
 703              		.cfi_def_cfa_offset 16
 704              		.cfi_offset 4, -16
 705              		.cfi_offset 5, -12
 706              		.cfi_offset 6, -8
 707              		.cfi_offset 14, -4
 708 0002 0400     		movs	r4, r0
 709 0004 0D00     		movs	r5, r1
 710 0006 1600     		movs	r6, r2
 711              	.LVL93:
1104:Generated_Source\PSoC4/cy_em_eeprom.c **** 
 712              		.loc 1 1104 0
 713 0008 FFF7FEFF 		bl	WriteRow
 714              	.LVL94:
1106:Generated_Source\PSoC4/cy_em_eeprom.c ****     {
 715              		.loc 1 1106 0
 716 000c 0028     		cmp	r0, #0
 717 000e 0BD1     		bne	.L51
1106:Generated_Source\PSoC4/cy_em_eeprom.c ****     {
 718              		.loc 1 1106 0 is_stmt 0 discriminator 1
 719 0010 337D     		ldrb	r3, [r6, #20]
 720 0012 002B     		cmp	r3, #0
 721 0014 08D0     		beq	.L51
1109:Generated_Source\PSoC4/cy_em_eeprom.c ****         ret = WriteRow(emEepromRowAddr, (uint32 *)ramBuffAddr, context);
 722              		.loc 1 1109 0 is_stmt 1
 723 0016 B369     		ldr	r3, [r6, #24]
 724 0018 E01A     		subs	r0, r4, r3
 725              	.LVL95:
 726 001a 3368     		ldr	r3, [r6]
 727 001c 9C46     		mov	ip, r3
 728 001e 6044     		add	r0, r0, ip
 729              	.LVL96:
1110:Generated_Source\PSoC4/cy_em_eeprom.c ****     }
 730              		.loc 1 1110 0
 731 0020 3200     		movs	r2, r6
 732 0022 2900     		movs	r1, r5
ARM GAS  C:\Users\nbutts\AppData\Local\Temp\ccrYYXbt.s 			page 37


 733 0024 FFF7FEFF 		bl	WriteRow
 734              	.LVL97:
 735              	.L51:
1113:Generated_Source\PSoC4/cy_em_eeprom.c ****     {
 736              		.loc 1 1113 0
 737 0028 0028     		cmp	r0, #0
 738 002a 00D1     		bne	.L52
1115:Generated_Source\PSoC4/cy_em_eeprom.c ****     }
 739              		.loc 1 1115 0
 740 002c B460     		str	r4, [r6, #8]
 741              	.L52:
1120:Generated_Source\PSoC4/cy_em_eeprom.c **** 
 742              		.loc 1 1120 0
 743              		@ sp needed
 744              	.LVL98:
 745              	.LVL99:
 746              	.LVL100:
 747 002e 70BD     		pop	{r4, r5, r6, pc}
 748              		.cfi_endproc
 749              	.LFE12:
 750              		.size	EraseRow, .-EraseRow
 751              		.section	.text.Cy_Em_EEPROM_Init,"ax",%progbits
 752              		.align	2
 753              		.global	Cy_Em_EEPROM_Init
 754              		.code	16
 755              		.thumb_func
 756              		.type	Cy_Em_EEPROM_Init, %function
 757              	Cy_Em_EEPROM_Init:
 758              	.LFB1:
  74:Generated_Source\PSoC4/cy_em_eeprom.c ****     cy_en_em_eeprom_status_t ret = CY_EM_EEPROM_BAD_PARAM;
 759              		.loc 1 74 0
 760              		.cfi_startproc
 761              		@ args = 0, pretend = 0, frame = 0
 762              		@ frame_needed = 0, uses_anonymous_args = 0
 763              	.LVL101:
 764 0000 F8B5     		push	{r3, r4, r5, r6, r7, lr}
 765              		.cfi_def_cfa_offset 24
 766              		.cfi_offset 3, -24
 767              		.cfi_offset 4, -20
 768              		.cfi_offset 5, -16
 769              		.cfi_offset 6, -12
 770              		.cfi_offset 7, -8
 771              		.cfi_offset 14, -4
 772 0002 0400     		movs	r4, r0
 773 0004 0D1E     		subs	r5, r1, #0
 774              	.LVL102:
  77:Generated_Source\PSoC4/cy_em_eeprom.c ****         (config->wearLevelingFactor <= CY_EM_EEPROM_MAX_WEAR_LEVELING_FACTOR) && (config->eepromSiz
 775              		.loc 1 77 0
 776 0006 2BD0     		beq	.L56
  77:Generated_Source\PSoC4/cy_em_eeprom.c ****         (config->wearLevelingFactor <= CY_EM_EEPROM_MAX_WEAR_LEVELING_FACTOR) && (config->eepromSiz
 777              		.loc 1 77 0 is_stmt 0 discriminator 1
 778 0008 0028     		cmp	r0, #0
 779 000a 2BD0     		beq	.L57
  77:Generated_Source\PSoC4/cy_em_eeprom.c ****         (config->wearLevelingFactor <= CY_EM_EEPROM_MAX_WEAR_LEVELING_FACTOR) && (config->eepromSiz
 780              		.loc 1 77 0 discriminator 2
 781 000c C368     		ldr	r3, [r0, #12]
 782 000e 002B     		cmp	r3, #0
ARM GAS  C:\Users\nbutts\AppData\Local\Temp\ccrYYXbt.s 			page 38


 783 0010 2AD0     		beq	.L58
  77:Generated_Source\PSoC4/cy_em_eeprom.c ****         (config->wearLevelingFactor <= CY_EM_EEPROM_MAX_WEAR_LEVELING_FACTOR) && (config->eepromSiz
 784              		.loc 1 77 0 discriminator 3
 785 0012 4368     		ldr	r3, [r0, #4]
 786 0014 0A2B     		cmp	r3, #10
 787 0016 29D8     		bhi	.L59
  78:Generated_Source\PSoC4/cy_em_eeprom.c ****     {
 788              		.loc 1 78 0 is_stmt 1
 789 0018 0768     		ldr	r7, [r0]
 790 001a 002F     		cmp	r7, #0
 791 001c 28D0     		beq	.L60
  80:Generated_Source\PSoC4/cy_em_eeprom.c **** 
 792              		.loc 1 80 0
 793 001e FFF7FEFF 		bl	CheckRanges
 794              	.LVL103:
 795 0022 061E     		subs	r6, r0, #0
 796              	.LVL104:
  82:Generated_Source\PSoC4/cy_em_eeprom.c ****         {
 797              		.loc 1 82 0
 798 0024 25D1     		bne	.L54
  85:Generated_Source\PSoC4/cy_em_eeprom.c ****             context->wearLevelingFactor = config->wearLevelingFactor;
 799              		.loc 1 85 0
 800 0026 EF60     		str	r7, [r5, #12]
  86:Generated_Source\PSoC4/cy_em_eeprom.c ****             context->redundantCopy = config->redundantCopy;
 801              		.loc 1 86 0
 802 0028 6368     		ldr	r3, [r4, #4]
 803 002a 2B61     		str	r3, [r5, #16]
  87:Generated_Source\PSoC4/cy_em_eeprom.c ****             context->blockingWrite = config->blockingWrite;
 804              		.loc 1 87 0
 805 002c 237A     		ldrb	r3, [r4, #8]
 806 002e 2B75     		strb	r3, [r5, #20]
  88:Generated_Source\PSoC4/cy_em_eeprom.c ****             context->userFlashStartAddr = config->userFlashStartAddr;
 807              		.loc 1 88 0
 808 0030 637A     		ldrb	r3, [r4, #9]
 809 0032 6B75     		strb	r3, [r5, #21]
  89:Generated_Source\PSoC4/cy_em_eeprom.c ****             /* Store frequently used data for internal use */
 810              		.loc 1 89 0
 811 0034 E368     		ldr	r3, [r4, #12]
 812 0036 AB61     		str	r3, [r5, #24]
  91:Generated_Source\PSoC4/cy_em_eeprom.c ****             context->wlEndAddr = ((CY_EM_EEPROM_GET_EEPROM_SIZE(context->numberOfRows) * config->we
 813              		.loc 1 91 0
 814 0038 2268     		ldr	r2, [r4]
 815 003a 9109     		lsrs	r1, r2, #6
 816 003c 3F23     		movs	r3, #63
 817 003e 1340     		ands	r3, r2
 818 0040 00D0     		beq	.L55
 819 0042 0123     		movs	r3, #1
 820              	.L55:
  91:Generated_Source\PSoC4/cy_em_eeprom.c ****             context->wlEndAddr = ((CY_EM_EEPROM_GET_EEPROM_SIZE(context->numberOfRows) * config->we
 821              		.loc 1 91 0 is_stmt 0 discriminator 4
 822 0044 5B18     		adds	r3, r3, r1
 823 0046 6B60     		str	r3, [r5, #4]
  92:Generated_Source\PSoC4/cy_em_eeprom.c ****                     config->userFlashStartAddr);
 824              		.loc 1 92 0 is_stmt 1 discriminator 4
 825 0048 6268     		ldr	r2, [r4, #4]
 826 004a 5343     		muls	r3, r2
 827 004c DB01     		lsls	r3, r3, #7
ARM GAS  C:\Users\nbutts\AppData\Local\Temp\ccrYYXbt.s 			page 39


  93:Generated_Source\PSoC4/cy_em_eeprom.c ****             /* Find last written EEPROM row and store it for quick access */
 828              		.loc 1 93 0 discriminator 4
 829 004e E268     		ldr	r2, [r4, #12]
  92:Generated_Source\PSoC4/cy_em_eeprom.c ****                     config->userFlashStartAddr);
 830              		.loc 1 92 0 discriminator 4
 831 0050 9B18     		adds	r3, r3, r2
 832 0052 2B60     		str	r3, [r5]
  95:Generated_Source\PSoC4/cy_em_eeprom.c ****         }
 833              		.loc 1 95 0 discriminator 4
 834 0054 2800     		movs	r0, r5
 835              	.LVL105:
 836 0056 0830     		adds	r0, r0, #8
 837 0058 2900     		movs	r1, r5
 838 005a FFF7FEFF 		bl	FindLastWrittenRow
 839              	.LVL106:
 840 005e 08E0     		b	.L54
 841              	.LVL107:
 842              	.L56:
  75:Generated_Source\PSoC4/cy_em_eeprom.c **** 
 843              		.loc 1 75 0
 844 0060 0126     		movs	r6, #1
 845 0062 06E0     		b	.L54
 846              	.L57:
 847 0064 0126     		movs	r6, #1
 848 0066 04E0     		b	.L54
 849              	.L58:
 850 0068 0126     		movs	r6, #1
 851 006a 02E0     		b	.L54
 852              	.L59:
 853 006c 0126     		movs	r6, #1
 854 006e 00E0     		b	.L54
 855              	.L60:
 856 0070 0126     		movs	r6, #1
 857              	.LVL108:
 858              	.L54:
 100:Generated_Source\PSoC4/cy_em_eeprom.c **** 
 859              		.loc 1 100 0
 860 0072 3000     		movs	r0, r6
 861              		@ sp needed
 862              	.LVL109:
 863              	.LVL110:
 864              	.LVL111:
 865 0074 F8BD     		pop	{r3, r4, r5, r6, r7, pc}
 866              		.cfi_endproc
 867              	.LFE1:
 868              		.size	Cy_Em_EEPROM_Init, .-Cy_Em_EEPROM_Init
 869              		.global	__aeabi_uidiv
 870 0076 C046     		.section	.text.Cy_Em_EEPROM_Read,"ax",%progbits
 871              		.align	2
 872              		.global	Cy_Em_EEPROM_Read
 873              		.code	16
 874              		.thumb_func
 875              		.type	Cy_Em_EEPROM_Read, %function
 876              	Cy_Em_EEPROM_Read:
 877              	.LFB2:
 137:Generated_Source\PSoC4/cy_em_eeprom.c ****     cy_en_em_eeprom_status_t ret = CY_EM_EEPROM_BAD_PARAM;
 878              		.loc 1 137 0
ARM GAS  C:\Users\nbutts\AppData\Local\Temp\ccrYYXbt.s 			page 40


 879              		.cfi_startproc
 880              		@ args = 0, pretend = 0, frame = 32
 881              		@ frame_needed = 0, uses_anonymous_args = 0
 882              	.LVL112:
 883 0000 F0B5     		push	{r4, r5, r6, r7, lr}
 884              		.cfi_def_cfa_offset 20
 885              		.cfi_offset 4, -20
 886              		.cfi_offset 5, -16
 887              		.cfi_offset 6, -12
 888              		.cfi_offset 7, -8
 889              		.cfi_offset 14, -4
 890 0002 5F46     		mov	r7, fp
 891 0004 5646     		mov	r6, r10
 892 0006 4D46     		mov	r5, r9
 893 0008 4446     		mov	r4, r8
 894 000a F0B4     		push	{r4, r5, r6, r7}
 895              		.cfi_def_cfa_offset 36
 896              		.cfi_offset 8, -36
 897              		.cfi_offset 9, -32
 898              		.cfi_offset 10, -28
 899              		.cfi_offset 11, -24
 900 000c 8BB0     		sub	sp, sp, #44
 901              		.cfi_def_cfa_offset 80
 902 000e 8146     		mov	r9, r0
 903 0010 0C00     		movs	r4, r1
 904 0012 9046     		mov	r8, r2
 905 0014 1E00     		movs	r6, r3
 906              	.LVL113:
 147:Generated_Source\PSoC4/cy_em_eeprom.c **** 
 907              		.loc 1 147 0
 908 0016 0591     		str	r1, [sp, #20]
 909              	.LVL114:
 150:Generated_Source\PSoC4/cy_em_eeprom.c ****     {
 910              		.loc 1 150 0
 911 0018 131E     		subs	r3, r2, #0
 912              	.LVL115:
 913 001a 00D1     		bne	.LCB943
 914 001c E8E0     		b	.L83	@long jump
 915              	.LCB943:
 150:Generated_Source\PSoC4/cy_em_eeprom.c ****     {
 916              		.loc 1 150 0 is_stmt 0 discriminator 1
 917 001e 4B44     		add	r3, r3, r9
 918 0020 0793     		str	r3, [sp, #28]
 919 0022 F268     		ldr	r2, [r6, #12]
 920              	.LVL116:
 921 0024 9342     		cmp	r3, r2
 922 0026 00D9     		bls	.LCB950
 923 0028 E5E0     		b	.L84	@long jump
 924              	.LCB950:
 150:Generated_Source\PSoC4/cy_em_eeprom.c ****     {
 925              		.loc 1 150 0 discriminator 2
 926 002a 0029     		cmp	r1, #0
 927 002c 00D1     		bne	.LCB952
 928 002e E5E0     		b	.L85	@long jump
 929              	.LCB952:
 930              	.LVL117:
 931              	.LBB2:
ARM GAS  C:\Users\nbutts\AppData\Local\Temp\ccrYYXbt.s 			page 41


 155:Generated_Source\PSoC4/cy_em_eeprom.c **** 
 932              		.loc 1 155 0 is_stmt 1
 933 0030 B368     		ldr	r3, [r6, #8]
 934 0032 9A46     		mov	r10, r3
 935 0034 1B68     		ldr	r3, [r3]
 936 0036 0893     		str	r3, [sp, #32]
 937              	.LVL118:
 157:Generated_Source\PSoC4/cy_em_eeprom.c ****         {
 938              		.loc 1 157 0
 939 0038 002B     		cmp	r3, #0
 940 003a 00D1     		bne	.LCB962
 941 003c E1E0     		b	.L86	@long jump
 942              	.LCB962:
 943              	.LVL119:
 944              	.LBB3:
 164:Generated_Source\PSoC4/cy_em_eeprom.c ****                                   (rdAddr / CY_EM_EEPROM_EEPROM_DATA_LEN)) + 1u;
 945              		.loc 1 164 0
 946 003e 079B     		ldr	r3, [sp, #28]
 947              	.LVL120:
 948 0040 013B     		subs	r3, r3, #1
 949 0042 9B09     		lsrs	r3, r3, #6
 165:Generated_Source\PSoC4/cy_em_eeprom.c **** 
 950              		.loc 1 165 0
 951 0044 8209     		lsrs	r2, r0, #6
 164:Generated_Source\PSoC4/cy_em_eeprom.c ****                                   (rdAddr / CY_EM_EEPROM_EEPROM_DATA_LEN)) + 1u;
 952              		.loc 1 164 0
 953 0046 9B1A     		subs	r3, r3, r2
 954 0048 0133     		adds	r3, r3, #1
 955 004a 9B46     		mov	fp, r3
 956              	.LVL121:
 171:Generated_Source\PSoC4/cy_em_eeprom.c ****                                   (CY_EM_EEPROM_FLASH_SIZEOF_ROW * context->numberOfRows)) *
 957              		.loc 1 171 0
 958 004c B569     		ldr	r5, [r6, #24]
 959 004e 5346     		mov	r3, r10
 960              	.LVL122:
 961 0050 581B     		subs	r0, r3, r5
 962              	.LVL123:
 172:Generated_Source\PSoC4/cy_em_eeprom.c ****                                   (CY_EM_EEPROM_FLASH_SIZEOF_ROW * context->numberOfRows)) +
 963              		.loc 1 172 0
 964 0052 7768     		ldr	r7, [r6, #4]
 965 0054 F901     		lsls	r1, r7, #7
 966              	.LVL124:
 171:Generated_Source\PSoC4/cy_em_eeprom.c ****                                   (CY_EM_EEPROM_FLASH_SIZEOF_ROW * context->numberOfRows)) *
 967              		.loc 1 171 0
 968 0056 FFF7FEFF 		bl	__aeabi_uidiv
 969              	.LVL125:
 172:Generated_Source\PSoC4/cy_em_eeprom.c ****                                   (CY_EM_EEPROM_FLASH_SIZEOF_ROW * context->numberOfRows)) +
 970              		.loc 1 172 0
 971 005a 7843     		muls	r0, r7
 972 005c C001     		lsls	r0, r0, #7
 171:Generated_Source\PSoC4/cy_em_eeprom.c ****                                   (CY_EM_EEPROM_FLASH_SIZEOF_ROW * context->numberOfRows)) *
 973              		.loc 1 171 0
 974 005e 2B18     		adds	r3, r5, r0
 975 0060 0393     		str	r3, [sp, #12]
 976              	.LVL126:
 177:Generated_Source\PSoC4/cy_em_eeprom.c ****             {
 977              		.loc 1 177 0
ARM GAS  C:\Users\nbutts\AppData\Local\Temp\ccrYYXbt.s 			page 42


 978 0062 0025     		movs	r5, #0
 979 0064 4A46     		mov	r2, r9
 980 0066 0FE0     		b	.L63
 981              	.LVL127:
 982              	.L66:
 179:Generated_Source\PSoC4/cy_em_eeprom.c ****                 {
 983              		.loc 1 179 0
 984 0068 AB01     		lsls	r3, r5, #6
 985 006a 9A42     		cmp	r2, r3
 986 006c 06D3     		bcc	.L87
 179:Generated_Source\PSoC4/cy_em_eeprom.c ****                 {
 987              		.loc 1 179 0 is_stmt 0 discriminator 1
 988 006e 6B1C     		adds	r3, r5, #1
 989 0070 9B01     		lsls	r3, r3, #6
 990 0072 013B     		subs	r3, r3, #1
 991 0074 9A42     		cmp	r2, r3
 992 0076 03D9     		bls	.L88
 179:Generated_Source\PSoC4/cy_em_eeprom.c ****                 {
 993              		.loc 1 179 0
 994 0078 0023     		movs	r3, #0
 995 007a 02E0     		b	.L64
 996              	.L87:
 997 007c 0023     		movs	r3, #0
 998 007e 00E0     		b	.L64
 999              	.L88:
 1000 0080 0123     		movs	r3, #1
 1001              	.L64:
 179:Generated_Source\PSoC4/cy_em_eeprom.c ****                 {
 1002              		.loc 1 179 0 discriminator 6
 1003 0082 002B     		cmp	r3, #0
 1004 0084 05D1     		bne	.L93
 177:Generated_Source\PSoC4/cy_em_eeprom.c ****             {
 1005              		.loc 1 177 0 is_stmt 1 discriminator 2
 1006 0086 0135     		adds	r5, r5, #1
 1007              	.LVL128:
 1008              	.L63:
 177:Generated_Source\PSoC4/cy_em_eeprom.c ****             {
 1009              		.loc 1 177 0 is_stmt 0 discriminator 1
 1010 0088 BD42     		cmp	r5, r7
 1011 008a EDD3     		bcc	.L66
 1012 008c 9146     		mov	r9, r2
 1013              	.LVL129:
 1014              	.LBE3:
 1015              	.LBE2:
 145:Generated_Source\PSoC4/cy_em_eeprom.c ****     uint32 dataStartEepromRowNum = 0u;
 1016              		.loc 1 145 0 is_stmt 1
 1017 008e 0025     		movs	r5, #0
 1018              	.LVL130:
 1019 0090 00E0     		b	.L65
 1020              	.LVL131:
 1021              	.L93:
 1022 0092 9146     		mov	r9, r2
 1023              	.LVL132:
 1024              	.L65:
 1025              	.LBB11:
 1026              	.LBB8:
 188:Generated_Source\PSoC4/cy_em_eeprom.c **** 
ARM GAS  C:\Users\nbutts\AppData\Local\Temp\ccrYYXbt.s 			page 43


 1027              		.loc 1 188 0
 1028 0094 5346     		mov	r3, r10
 1029 0096 039A     		ldr	r2, [sp, #12]
 1030              	.LVL133:
 1031 0098 9B1A     		subs	r3, r3, r2
 1032 009a DB09     		lsrs	r3, r3, #7
 1033 009c 1900     		movs	r1, r3
 1034 009e 0693     		str	r3, [sp, #24]
 1035              	.LVL134:
 191:Generated_Source\PSoC4/cy_em_eeprom.c ****             {
 1036              		.loc 1 191 0
 1037 00a0 3369     		ldr	r3, [r6, #16]
 1038 00a2 012B     		cmp	r3, #1
 1039 00a4 09D9     		bls	.L89
 1040              	.LBB4:
 193:Generated_Source\PSoC4/cy_em_eeprom.c **** 
 1041              		.loc 1 193 0
 1042 00a6 5B46     		mov	r3, fp
 1043 00a8 EB18     		adds	r3, r5, r3
 1044 00aa 013B     		subs	r3, r3, #1
 1045              	.LVL135:
 196:Generated_Source\PSoC4/cy_em_eeprom.c ****                                   ((dataEndEepromRowNum > actEepromRowNum) ? 1u : 0u);
 1046              		.loc 1 196 0
 1047 00ac 8D42     		cmp	r5, r1
 1048 00ae 07D8     		bhi	.L90
 196:Generated_Source\PSoC4/cy_em_eeprom.c ****                                   ((dataEndEepromRowNum > actEepromRowNum) ? 1u : 0u);
 1049              		.loc 1 196 0 is_stmt 0 discriminator 1
 1050 00b0 9942     		cmp	r1, r3
 1051 00b2 08D2     		bcs	.L91
 196:Generated_Source\PSoC4/cy_em_eeprom.c ****                                   ((dataEndEepromRowNum > actEepromRowNum) ? 1u : 0u);
 1052              		.loc 1 196 0
 1053 00b4 0123     		movs	r3, #1
 1054              	.LVL136:
 1055 00b6 0493     		str	r3, [sp, #16]
 1056 00b8 07E0     		b	.L67
 1057              	.LVL137:
 1058              	.L89:
 1059              	.LBE4:
 159:Generated_Source\PSoC4/cy_em_eeprom.c **** 
 1060              		.loc 1 159 0 is_stmt 1
 1061 00ba 0023     		movs	r3, #0
 1062 00bc 0493     		str	r3, [sp, #16]
 1063 00be 04E0     		b	.L67
 1064              	.LVL138:
 1065              	.L90:
 1066              	.LBB5:
 196:Generated_Source\PSoC4/cy_em_eeprom.c ****                                   ((dataEndEepromRowNum > actEepromRowNum) ? 1u : 0u);
 1067              		.loc 1 196 0
 1068 00c0 0123     		movs	r3, #1
 1069              	.LVL139:
 1070 00c2 0493     		str	r3, [sp, #16]
 1071 00c4 01E0     		b	.L67
 1072              	.LVL140:
 1073              	.L91:
 1074 00c6 0023     		movs	r3, #0
 1075              	.LVL141:
 1076 00c8 0493     		str	r3, [sp, #16]
ARM GAS  C:\Users\nbutts\AppData\Local\Temp\ccrYYXbt.s 			page 44


 1077              	.LVL142:
 1078              	.L67:
 1079              	.LBE5:
 1080              	.LBE8:
 152:Generated_Source\PSoC4/cy_em_eeprom.c ****         uint32 rdSize = size;
 1081              		.loc 1 152 0
 1082 00ca CA46     		mov	r10, r9
 1083              	.LBB9:
 201:Generated_Source\PSoC4/cy_em_eeprom.c ****             {
 1084              		.loc 1 201 0
 1085 00cc 0027     		movs	r7, #0
 1086              	.LBE9:
 1087              	.LBE11:
 138:Generated_Source\PSoC4/cy_em_eeprom.c ****     uint32 i;
 1088              		.loc 1 138 0
 1089 00ce 0123     		movs	r3, #1
 1090 00d0 1800     		movs	r0, r3
 1091 00d2 4B46     		mov	r3, r9
 1092 00d4 0993     		str	r3, [sp, #36]
 1093 00d6 A146     		mov	r9, r4
 1094              	.LVL143:
 1095 00d8 3300     		movs	r3, r6
 1096              	.LVL144:
 1097 00da 5646     		mov	r6, r10
 1098              	.LVL145:
 1099 00dc 9A46     		mov	r10, r3
 1100              	.LVL146:
 1101              	.LBB12:
 1102              	.LBB10:
 201:Generated_Source\PSoC4/cy_em_eeprom.c ****             {
 1103              		.loc 1 201 0
 1104 00de 3EE0     		b	.L68
 1105              	.LVL147:
 1106              	.L74:
 203:Generated_Source\PSoC4/cy_em_eeprom.c ****                 curRowOffset = CY_EM_EEPROM_EEPROM_DATA_LEN + (rdAddr % CY_EM_EEPROM_EEPROM_DATA_LE
 1107              		.loc 1 203 0
 1108 00e0 E801     		lsls	r0, r5, #7
 1109              	.LVL148:
 1110 00e2 039B     		ldr	r3, [sp, #12]
 1111 00e4 9C46     		mov	ip, r3
 1112 00e6 6044     		add	r0, r0, ip
 1113              	.LVL149:
 204:Generated_Source\PSoC4/cy_em_eeprom.c **** 
 1114              		.loc 1 204 0
 1115 00e8 3F24     		movs	r4, #63
 1116 00ea 3440     		ands	r4, r6
 1117 00ec 2200     		movs	r2, r4
 1118 00ee 4032     		adds	r2, r2, #64
 1119              	.LVL150:
 209:Generated_Source\PSoC4/cy_em_eeprom.c ****                 {
 1120              		.loc 1 209 0
 1121 00f0 0137     		adds	r7, r7, #1
 1122              	.LVL151:
 1123 00f2 BB45     		cmp	fp, r7
 1124 00f4 02D9     		bls	.L92
 211:Generated_Source\PSoC4/cy_em_eeprom.c ****                 }
 1125              		.loc 1 211 0
ARM GAS  C:\Users\nbutts\AppData\Local\Temp\ccrYYXbt.s 			page 45


 1126 00f6 4023     		movs	r3, #64
 1127 00f8 1C1B     		subs	r4, r3, r4
 1128              	.LVL152:
 1129 00fa 00E0     		b	.L69
 1130              	.LVL153:
 1131              	.L92:
 215:Generated_Source\PSoC4/cy_em_eeprom.c ****                 }
 1132              		.loc 1 215 0
 1133 00fc 4446     		mov	r4, r8
 1134              	.L69:
 1135              	.LVL154:
 221:Generated_Source\PSoC4/cy_em_eeprom.c ****                 {
 1136              		.loc 1 221 0
 1137 00fe 049B     		ldr	r3, [sp, #16]
 1138 0100 002B     		cmp	r3, #0
 1139 0102 0FD0     		beq	.L70
 221:Generated_Source\PSoC4/cy_em_eeprom.c ****                 {
 1140              		.loc 1 221 0 is_stmt 0 discriminator 1
 1141 0104 069B     		ldr	r3, [sp, #24]
 1142 0106 9D42     		cmp	r5, r3
 1143 0108 0CD9     		bls	.L70
 223:Generated_Source\PSoC4/cy_em_eeprom.c **** 
 1144              		.loc 1 223 0 is_stmt 1
 1145 010a 5346     		mov	r3, r10
 1146 010c 5B68     		ldr	r3, [r3, #4]
 1147 010e D901     		lsls	r1, r3, #7
 1148 0110 401A     		subs	r0, r0, r1
 1149              	.LVL155:
 225:Generated_Source\PSoC4/cy_em_eeprom.c ****                     {
 1150              		.loc 1 225 0
 1151 0112 5146     		mov	r1, r10
 1152 0114 8969     		ldr	r1, [r1, #24]
 1153 0116 8842     		cmp	r0, r1
 1154 0118 04D2     		bcs	.L70
 228:Generated_Source\PSoC4/cy_em_eeprom.c ****                     }
 1155              		.loc 1 228 0
 1156 011a 581B     		subs	r0, r3, r5
 1157              	.LVL156:
 1158 011c C301     		lsls	r3, r0, #7
 1159              	.LVL157:
 227:Generated_Source\PSoC4/cy_em_eeprom.c ****                             ((context->numberOfRows - curRdEepromRowNum) * CY_EM_EEPROM_FLASH_SIZEO
 1160              		.loc 1 227 0
 1161 011e 5146     		mov	r1, r10
 1162 0120 0968     		ldr	r1, [r1]
 1163 0122 C81A     		subs	r0, r1, r3
 1164              	.LVL158:
 1165              	.L70:
 232:Generated_Source\PSoC4/cy_em_eeprom.c ****                 {
 1166              		.loc 1 232 0
 1167 0124 5346     		mov	r3, r10
 1168 0126 1B7D     		ldrb	r3, [r3, #20]
 1169 0128 002B     		cmp	r3, #0
 1170 012a 0CD0     		beq	.L71
 237:Generated_Source\PSoC4/cy_em_eeprom.c **** 
 1171              		.loc 1 237 0
 1172 012c 5346     		mov	r3, r10
 1173 012e 0093     		str	r3, [sp]
ARM GAS  C:\Users\nbutts\AppData\Local\Temp\ccrYYXbt.s 			page 46


 1174 0130 2300     		movs	r3, r4
 1175 0132 4946     		mov	r1, r9
 1176 0134 FFF7FEFF 		bl	CheckCrcAndCopy
 1177              	.LVL159:
 239:Generated_Source\PSoC4/cy_em_eeprom.c ****                     {
 1178              		.loc 1 239 0
 1179 0138 0028     		cmp	r0, #0
 1180 013a 0AD0     		beq	.L73
 1181 013c 8346     		mov	fp, r0
 1182              	.LVL160:
 1183 013e 099B     		ldr	r3, [sp, #36]
 1184 0140 9946     		mov	r9, r3
 1185              	.LVL161:
 1186 0142 5646     		mov	r6, r10
 1187              	.LVL162:
 1188 0144 11E0     		b	.L72
 1189              	.LVL163:
 1190              	.L71:
 248:Generated_Source\PSoC4/cy_em_eeprom.c ****                                  numBytesToRead);
 1191              		.loc 1 248 0
 1192 0146 8118     		adds	r1, r0, r2
 247:Generated_Source\PSoC4/cy_em_eeprom.c ****                                  (void *)(startRowAddr + curRowOffset),
 1193              		.loc 1 247 0
 1194 0148 2200     		movs	r2, r4
 1195              	.LVL164:
 1196 014a 4846     		mov	r0, r9
 1197              	.LVL165:
 1198 014c FFF7FEFF 		bl	memcpy
 1199              	.LVL166:
 252:Generated_Source\PSoC4/cy_em_eeprom.c ****                 }
 1200              		.loc 1 252 0
 1201 0150 0020     		movs	r0, #0
 1202              	.LVL167:
 1203              	.L73:
 256:Generated_Source\PSoC4/cy_em_eeprom.c ****                 rdSize -= numBytesToRead;
 1204              		.loc 1 256 0 discriminator 2
 1205 0152 3619     		adds	r6, r6, r4
 1206              	.LVL168:
 257:Generated_Source\PSoC4/cy_em_eeprom.c ****                 eeData += numBytesToRead;
 1207              		.loc 1 257 0 discriminator 2
 1208 0154 4346     		mov	r3, r8
 1209 0156 1B1B     		subs	r3, r3, r4
 1210 0158 9846     		mov	r8, r3
 1211              	.LVL169:
 258:Generated_Source\PSoC4/cy_em_eeprom.c ****                 curRdEepromRowNum++;
 1212              		.loc 1 258 0 discriminator 2
 1213 015a A144     		add	r9, r9, r4
 1214              	.LVL170:
 259:Generated_Source\PSoC4/cy_em_eeprom.c ****             }
 1215              		.loc 1 259 0 discriminator 2
 1216 015c 0135     		adds	r5, r5, #1
 1217              	.LVL171:
 1218              	.L68:
 201:Generated_Source\PSoC4/cy_em_eeprom.c ****             {
 1219              		.loc 1 201 0 discriminator 1
 1220 015e 5F45     		cmp	r7, fp
 1221 0160 BED3     		bcc	.L74
ARM GAS  C:\Users\nbutts\AppData\Local\Temp\ccrYYXbt.s 			page 47


 1222 0162 8346     		mov	fp, r0
 1223              	.LVL172:
 1224 0164 099B     		ldr	r3, [sp, #36]
 1225 0166 9946     		mov	r9, r3
 1226              	.LVL173:
 1227 0168 5646     		mov	r6, r10
 1228              	.LVL174:
 1229              	.L72:
 266:Generated_Source\PSoC4/cy_em_eeprom.c ****             {
 1230              		.loc 1 266 0
 1231 016a 5B46     		mov	r3, fp
 1232 016c 002B     		cmp	r3, #0
 1233 016e 4AD1     		bne	.L62
 268:Generated_Source\PSoC4/cy_em_eeprom.c **** 
 1234              		.loc 1 268 0
 1235 0170 7368     		ldr	r3, [r6, #4]
 1236 0172 5C1E     		subs	r4, r3, #1
 1237              	.LVL175:
 270:Generated_Source\PSoC4/cy_em_eeprom.c ****                 {
 1238              		.loc 1 270 0
 1239 0174 089B     		ldr	r3, [sp, #32]
 1240 0176 1C1B     		subs	r4, r3, r4
 1241              	.LVL176:
 1242 0178 079A     		ldr	r2, [sp, #28]
 1243 017a 9046     		mov	r8, r2
 1244              	.LVL177:
 1245 017c 1D00     		movs	r5, r3
 1246              	.LVL178:
 1247 017e 4F46     		mov	r7, r9
 1248 0180 33E0     		b	.L75
 1249              	.LVL179:
 1250              	.L82:
 272:Generated_Source\PSoC4/cy_em_eeprom.c ****                     
 1251              		.loc 1 272 0
 1252 0182 3100     		movs	r1, r6
 1253 0184 2000     		movs	r0, r4
 1254 0186 FFF7FEFF 		bl	GetRowAddrBySeqNum
 1255              	.LVL180:
 274:Generated_Source\PSoC4/cy_em_eeprom.c ****                     {
 1256              		.loc 1 274 0
 1257 018a 0028     		cmp	r0, #0
 1258 018c 2CD0     		beq	.L76
 1259              	.LBB6:
 277:Generated_Source\PSoC4/cy_em_eeprom.c ****                         uint32 endAddr    = startAddr + (*(uint32 *)(startRowAddr + CY_EM_EEPROM_HE
 1260              		.loc 1 277 0
 1261 018e 4268     		ldr	r2, [r0, #4]
 1262              	.LVL181:
 278:Generated_Source\PSoC4/cy_em_eeprom.c **** 
 1263              		.loc 1 278 0
 1264 0190 8368     		ldr	r3, [r0, #8]
 1265 0192 D318     		adds	r3, r2, r3
 1266              	.LVL182:
 281:Generated_Source\PSoC4/cy_em_eeprom.c ****                         {
 1267              		.loc 1 281 0
 1268 0194 9742     		cmp	r7, r2
 1269 0196 03D2     		bcs	.L77
 281:Generated_Source\PSoC4/cy_em_eeprom.c ****                         {
ARM GAS  C:\Users\nbutts\AppData\Local\Temp\ccrYYXbt.s 			page 48


 1270              		.loc 1 281 0 is_stmt 0 discriminator 1
 1271 0198 4245     		cmp	r2, r8
 1272 019a 8941     		sbcs	r1, r1, r1
 1273 019c 4942     		rsbs	r1, r1, #0
 1274 019e 02E0     		b	.L78
 1275              	.L77:
 281:Generated_Source\PSoC4/cy_em_eeprom.c ****                         {
 1276              		.loc 1 281 0 discriminator 2
 1277 01a0 9F42     		cmp	r7, r3
 1278 01a2 8941     		sbcs	r1, r1, r1
 1279 01a4 4942     		rsbs	r1, r1, #0
 1280              	.L78:
 281:Generated_Source\PSoC4/cy_em_eeprom.c ****                         {
 1281              		.loc 1 281 0 discriminator 4
 1282 01a6 0029     		cmp	r1, #0
 1283 01a8 1ED0     		beq	.L76
 283:Generated_Source\PSoC4/cy_em_eeprom.c **** 
 1284              		.loc 1 283 0 is_stmt 1
 1285 01aa 3900     		movs	r1, r7
 1286 01ac 9742     		cmp	r7, r2
 1287 01ae 00D2     		bcs	.L79
 1288 01b0 1100     		movs	r1, r2
 1289              	.L79:
 1290              	.LVL183:
 286:Generated_Source\PSoC4/cy_em_eeprom.c **** 
 1291              		.loc 1 286 0
 1292 01b2 4246     		mov	r2, r8
 1293              	.LVL184:
 1294 01b4 9845     		cmp	r8, r3
 1295 01b6 00D9     		bls	.L80
 1296 01b8 1A00     		movs	r2, r3
 1297              	.L80:
 1298 01ba 521A     		subs	r2, r2, r1
 1299              	.LVL185:
 289:Generated_Source\PSoC4/cy_em_eeprom.c **** 
 1300              		.loc 1 289 0
 1301 01bc C91B     		subs	r1, r1, r7
 1302              	.LVL186:
 1303 01be 059B     		ldr	r3, [sp, #20]
 1304              	.LVL187:
 1305 01c0 9C46     		mov	ip, r3
 1306 01c2 8C44     		add	ip, ip, r1
 1307              	.LVL188:
 296:Generated_Source\PSoC4/cy_em_eeprom.c ****                             {
 1308              		.loc 1 296 0
 1309 01c4 337D     		ldrb	r3, [r6, #20]
 1310 01c6 002B     		cmp	r3, #0
 1311 01c8 09D0     		beq	.L81
 298:Generated_Source\PSoC4/cy_em_eeprom.c ****                                                       CY_EM_EEPROM_HEADER_DATA_OFFSET, numBytesToRe
 1312              		.loc 1 298 0
 1313 01ca 0096     		str	r6, [sp]
 1314              	.LVL189:
 1315 01cc 1300     		movs	r3, r2
 1316 01ce 0C22     		movs	r2, #12
 1317              	.LVL190:
 1318 01d0 6146     		mov	r1, ip
 1319 01d2 FFF7FEFF 		bl	CheckCrcAndCopy
ARM GAS  C:\Users\nbutts\AppData\Local\Temp\ccrYYXbt.s 			page 49


 1320              	.LVL191:
 1321 01d6 8346     		mov	fp, r0
 1322              	.LVL192:
 301:Generated_Source\PSoC4/cy_em_eeprom.c ****                                 {
 1323              		.loc 1 301 0
 1324 01d8 0028     		cmp	r0, #0
 1325 01da 05D0     		beq	.L76
 1326              	.LBE6:
 1327 01dc 13E0     		b	.L62
 1328              	.LVL193:
 1329              	.L81:
 1330              	.LBB7:
 309:Generated_Source\PSoC4/cy_em_eeprom.c ****                                              numBytesToRead);
 1331              		.loc 1 309 0
 1332 01de 0100     		movs	r1, r0
 1333 01e0 0C31     		adds	r1, r1, #12
 308:Generated_Source\PSoC4/cy_em_eeprom.c ****                                              (void *)(startRowAddr + CY_EM_EEPROM_HEADER_DATA_OFFSE
 1334              		.loc 1 308 0
 1335 01e2 6046     		mov	r0, ip
 1336              	.LVL194:
 1337 01e4 FFF7FEFF 		bl	memcpy
 1338              	.LVL195:
 1339              	.L76:
 1340              	.LBE7:
 270:Generated_Source\PSoC4/cy_em_eeprom.c ****                 {
 1341              		.loc 1 270 0 discriminator 2
 1342 01e8 0134     		adds	r4, r4, #1
 1343              	.LVL196:
 1344              	.L75:
 270:Generated_Source\PSoC4/cy_em_eeprom.c ****                 {
 1345              		.loc 1 270 0 is_stmt 0 discriminator 1
 1346 01ea AC42     		cmp	r4, r5
 1347 01ec C9D9     		bls	.L82
 1348 01ee 0AE0     		b	.L62
 1349              	.LVL197:
 1350              	.L83:
 1351              	.LBE10:
 1352              	.LBE12:
 138:Generated_Source\PSoC4/cy_em_eeprom.c ****     uint32 i;
 1353              		.loc 1 138 0 is_stmt 1
 1354 01f0 0123     		movs	r3, #1
 1355 01f2 9B46     		mov	fp, r3
 1356 01f4 07E0     		b	.L62
 1357              	.LVL198:
 1358              	.L84:
 1359 01f6 0123     		movs	r3, #1
 1360 01f8 9B46     		mov	fp, r3
 1361 01fa 04E0     		b	.L62
 1362              	.L85:
 1363 01fc 0123     		movs	r3, #1
 1364 01fe 9B46     		mov	fp, r3
 1365 0200 01E0     		b	.L62
 1366              	.LVL199:
 1367              	.L86:
 1368              	.LBB13:
 320:Generated_Source\PSoC4/cy_em_eeprom.c ****         }
 1369              		.loc 1 320 0
ARM GAS  C:\Users\nbutts\AppData\Local\Temp\ccrYYXbt.s 			page 50


 1370 0202 0323     		movs	r3, #3
 1371              	.LVL200:
 1372 0204 9B46     		mov	fp, r3
 1373              	.LVL201:
 1374              	.L62:
 1375              	.LBE13:
 325:Generated_Source\PSoC4/cy_em_eeprom.c **** 
 1376              		.loc 1 325 0
 1377 0206 5846     		mov	r0, fp
 1378 0208 0BB0     		add	sp, sp, #44
 1379              		@ sp needed
 1380              	.LVL202:
 1381              	.LVL203:
 1382 020a 3CBC     		pop	{r2, r3, r4, r5}
 1383 020c 9046     		mov	r8, r2
 1384 020e 9946     		mov	r9, r3
 1385 0210 A246     		mov	r10, r4
 1386 0212 AB46     		mov	fp, r5
 1387 0214 F0BD     		pop	{r4, r5, r6, r7, pc}
 1388              		.cfi_endproc
 1389              	.LFE2:
 1390              		.size	Cy_Em_EEPROM_Read, .-Cy_Em_EEPROM_Read
 1391              		.global	__aeabi_uidivmod
 1392 0216 C046     		.section	.text.Cy_Em_EEPROM_Write,"ax",%progbits
 1393              		.align	2
 1394              		.global	Cy_Em_EEPROM_Write
 1395              		.code	16
 1396              		.thumb_func
 1397              		.type	Cy_Em_EEPROM_Write, %function
 1398              	Cy_Em_EEPROM_Write:
 1399              	.LFB3:
 379:Generated_Source\PSoC4/cy_em_eeprom.c ****     cy_en_em_eeprom_status_t ret = CY_EM_EEPROM_BAD_PARAM;
 1400              		.loc 1 379 0
 1401              		.cfi_startproc
 1402              		@ args = 0, pretend = 0, frame = 168
 1403              		@ frame_needed = 0, uses_anonymous_args = 0
 1404              	.LVL204:
 1405 0000 F0B5     		push	{r4, r5, r6, r7, lr}
 1406              		.cfi_def_cfa_offset 20
 1407              		.cfi_offset 4, -20
 1408              		.cfi_offset 5, -16
 1409              		.cfi_offset 6, -12
 1410              		.cfi_offset 7, -8
 1411              		.cfi_offset 14, -4
 1412 0002 5F46     		mov	r7, fp
 1413 0004 5646     		mov	r6, r10
 1414 0006 4D46     		mov	r5, r9
 1415 0008 4446     		mov	r4, r8
 1416 000a F0B4     		push	{r4, r5, r6, r7}
 1417              		.cfi_def_cfa_offset 36
 1418              		.cfi_offset 8, -36
 1419              		.cfi_offset 9, -32
 1420              		.cfi_offset 10, -28
 1421              		.cfi_offset 11, -24
 1422 000c ADB0     		sub	sp, sp, #180
 1423              		.cfi_def_cfa_offset 216
 1424 000e 8246     		mov	r10, r0
ARM GAS  C:\Users\nbutts\AppData\Local\Temp\ccrYYXbt.s 			page 51


 1425 0010 9346     		mov	fp, r2
 1426 0012 1D00     		movs	r5, r3
 1427              	.LVL205:
 385:Generated_Source\PSoC4/cy_em_eeprom.c ****     uint32 endAddr = 0u;
 1428              		.loc 1 385 0
 1429 0014 0023     		movs	r3, #0
 1430              	.LVL206:
 1431 0016 0B93     		str	r3, [sp, #44]
 386:Generated_Source\PSoC4/cy_em_eeprom.c ****     uint32 tmpRowAddr;
 1432              		.loc 1 386 0
 1433 0018 0A93     		str	r3, [sp, #40]
 388:Generated_Source\PSoC4/cy_em_eeprom.c ****     uint32 emEepromRowRdAddr;
 1434              		.loc 1 388 0
 1435 001a AB68     		ldr	r3, [r5, #8]
 1436 001c 0993     		str	r3, [sp, #36]
 391:Generated_Source\PSoC4/cy_em_eeprom.c **** 
 1437              		.loc 1 391 0
 1438 001e 0391     		str	r1, [sp, #12]
 1439              	.LVL207:
 394:Generated_Source\PSoC4/cy_em_eeprom.c ****     {
 1440              		.loc 1 394 0
 1441 0020 131E     		subs	r3, r2, #0
 1442 0022 00D1     		bne	.LCB1610
 1443 0024 A7E0     		b	.L112	@long jump
 1444              	.LCB1610:
 394:Generated_Source\PSoC4/cy_em_eeprom.c ****     {
 1445              		.loc 1 394 0 is_stmt 0 discriminator 1
 1446 0026 5344     		add	r3, r3, r10
 1447 0028 EA68     		ldr	r2, [r5, #12]
 1448              	.LVL208:
 1449 002a 9342     		cmp	r3, r2
 1450 002c 00D9     		bls	.LCB1616
 1451 002e A4E0     		b	.L113	@long jump
 1452              	.LCB1616:
 394:Generated_Source\PSoC4/cy_em_eeprom.c ****     {
 1453              		.loc 1 394 0 discriminator 2
 1454 0030 0029     		cmp	r1, #0
 1455 0032 00D1     		bne	.LCB1618
 1456 0034 A3E0     		b	.L114	@long jump
 1457              	.LCB1618:
 1458              	.LBB14:
 396:Generated_Source\PSoC4/cy_em_eeprom.c ****         uint32 eeHeaderDataOffset = 0u;
 1459              		.loc 1 396 0 is_stmt 1
 1460 0036 5B46     		mov	r3, fp
 1461 0038 581E     		subs	r0, r3, #1
 1462              	.LVL209:
 1463 003a 3021     		movs	r1, #48
 1464              	.LVL210:
 1465 003c FFF7FEFF 		bl	__aeabi_uidiv
 1466              	.LVL211:
 1467 0040 0300     		movs	r3, r0
 1468 0042 0590     		str	r0, [sp, #20]
 1469 0044 0133     		adds	r3, r3, #1
 1470 0046 0493     		str	r3, [sp, #16]
 1471              	.LVL212:
 397:Generated_Source\PSoC4/cy_em_eeprom.c **** 
 1472              		.loc 1 397 0
ARM GAS  C:\Users\nbutts\AppData\Local\Temp\ccrYYXbt.s 			page 52


 1473 0048 0023     		movs	r3, #0
 1474              	.LVL213:
 1475 004a 0793     		str	r3, [sp, #28]
 1476              	.LVL214:
 399:Generated_Source\PSoC4/cy_em_eeprom.c ****         {
 1477              		.loc 1 399 0
 1478 004c 9946     		mov	r9, r3
 1479              	.LBE14:
 380:Generated_Source\PSoC4/cy_em_eeprom.c ****     uint32 i;
 1480              		.loc 1 380 0
 1481 004e 0120     		movs	r0, #1
 1482              	.LBB17:
 399:Generated_Source\PSoC4/cy_em_eeprom.c ****         {
 1483              		.loc 1 399 0
 1484 0050 8CE0     		b	.L96
 1485              	.LVL215:
 1486              	.L111:
 1487              	.LBB15:
 403:Generated_Source\PSoC4/cy_em_eeprom.c **** 
 1488              		.loc 1 403 0
 1489 0052 099B     		ldr	r3, [sp, #36]
 1490 0054 1C68     		ldr	r4, [r3]
 1491              	.LVL216:
 410:Generated_Source\PSoC4/cy_em_eeprom.c **** 
 1492              		.loc 1 410 0
 1493 0056 2B00     		movs	r3, r5
 1494 0058 08AA     		add	r2, sp, #32
 1495 005a 09A9     		add	r1, sp, #36
 1496 005c 2000     		movs	r0, r4
 1497              	.LVL217:
 1498 005e FFF7FEFF 		bl	GetNextRowToWrite
 1499              	.LVL218:
 413:Generated_Source\PSoC4/cy_em_eeprom.c **** 
 1500              		.loc 1 413 0
 1501 0062 8022     		movs	r2, #128
 1502 0064 0021     		movs	r1, #0
 1503 0066 0CA8     		add	r0, sp, #48
 1504 0068 FFF7FEFF 		bl	memset
 1505              	.LVL219:
 416:Generated_Source\PSoC4/cy_em_eeprom.c ****             writeRamBuffer[0u] = seqNum;
 1506              		.loc 1 416 0
 1507 006c 631C     		adds	r3, r4, #1
 1508 006e 9846     		mov	r8, r3
 1509              	.LVL220:
 417:Generated_Source\PSoC4/cy_em_eeprom.c ****             writeRamBuffer[1u] = addr;
 1510              		.loc 1 417 0
 1511 0070 0C93     		str	r3, [sp, #48]
 418:Generated_Source\PSoC4/cy_em_eeprom.c ****             tmpData = (void *) eeData;
 1512              		.loc 1 418 0
 1513 0072 5346     		mov	r3, r10
 1514              	.LVL221:
 1515 0074 0D93     		str	r3, [sp, #52]
 419:Generated_Source\PSoC4/cy_em_eeprom.c **** 
 1516              		.loc 1 419 0
 1517 0076 0399     		ldr	r1, [sp, #12]
 1518              	.LVL222:
 422:Generated_Source\PSoC4/cy_em_eeprom.c ****             {
ARM GAS  C:\Users\nbutts\AppData\Local\Temp\ccrYYXbt.s 			page 53


 1519              		.loc 1 422 0
 1520 0078 059B     		ldr	r3, [sp, #20]
 1521 007a 9945     		cmp	r9, r3
 1522 007c 02D1     		bne	.L97
 425:Generated_Source\PSoC4/cy_em_eeprom.c ****             }
 1523              		.loc 1 425 0
 1524 007e 5B46     		mov	r3, fp
 1525 0080 0E93     		str	r3, [sp, #56]
 1526 0082 0AE0     		b	.L98
 1527              	.L97:
 433:Generated_Source\PSoC4/cy_em_eeprom.c ****                 size -= CY_EM_EEPROM_HEADER_DATA_LEN;
 1528              		.loc 1 433 0
 1529 0084 3023     		movs	r3, #48
 1530 0086 0E93     		str	r3, [sp, #56]
 434:Generated_Source\PSoC4/cy_em_eeprom.c ****                 addr += CY_EM_EEPROM_HEADER_DATA_LEN;
 1531              		.loc 1 434 0
 1532 0088 603B     		subs	r3, r3, #96
 1533 008a 9C46     		mov	ip, r3
 1534 008c E344     		add	fp, fp, ip
 1535              	.LVL223:
 435:Generated_Source\PSoC4/cy_em_eeprom.c ****                 eeData += CY_EM_EEPROM_HEADER_DATA_LEN;
 1536              		.loc 1 435 0
 1537 008e 6033     		adds	r3, r3, #96
 1538 0090 9C46     		mov	ip, r3
 1539 0092 E244     		add	r10, r10, ip
 1540              	.LVL224:
 436:Generated_Source\PSoC4/cy_em_eeprom.c ****             }
 1541              		.loc 1 436 0
 1542 0094 039B     		ldr	r3, [sp, #12]
 1543 0096 3033     		adds	r3, r3, #48
 1544 0098 0393     		str	r3, [sp, #12]
 1545              	.LVL225:
 1546              	.L98:
 440:Generated_Source\PSoC4/cy_em_eeprom.c ****                          tmpData,
 1547              		.loc 1 440 0
 1548 009a 0E9A     		ldr	r2, [sp, #56]
 1549 009c 0FA8     		add	r0, sp, #60
 1550 009e FFF7FEFF 		bl	memcpy
 1551              	.LVL226:
 444:Generated_Source\PSoC4/cy_em_eeprom.c ****             {
 1552              		.loc 1 444 0
 1553 00a2 0899     		ldr	r1, [sp, #32]
 1554 00a4 0029     		cmp	r1, #0
 1555 00a6 04D0     		beq	.L99
 448:Generated_Source\PSoC4/cy_em_eeprom.c ****                              CY_EM_EEPROM_EEPROM_DATA_LEN);
 1556              		.loc 1 448 0
 1557 00a8 4031     		adds	r1, r1, #64
 447:Generated_Source\PSoC4/cy_em_eeprom.c ****                              (void *)(emEepromRowRdAddr + CY_EM_EEPROM_EEPROM_DATA_LEN),
 1558              		.loc 1 447 0
 1559 00aa 4022     		movs	r2, #64
 1560 00ac 1CA8     		add	r0, sp, #112
 1561 00ae FFF7FEFF 		bl	memcpy
 1562              	.LVL227:
 1563              	.L99:
 456:Generated_Source\PSoC4/cy_em_eeprom.c **** 
 1564              		.loc 1 456 0
 1565 00b2 6C68     		ldr	r4, [r5, #4]
ARM GAS  C:\Users\nbutts\AppData\Local\Temp\ccrYYXbt.s 			page 54


 1566 00b4 A045     		cmp	r8, r4
 1567 00b6 03D9     		bls	.L115
 456:Generated_Source\PSoC4/cy_em_eeprom.c **** 
 1568              		.loc 1 456 0 is_stmt 0 discriminator 1
 1569 00b8 4346     		mov	r3, r8
 1570 00ba 1C1B     		subs	r4, r3, r4
 1571 00bc 0134     		adds	r4, r4, #1
 1572 00be 00E0     		b	.L100
 1573              	.L115:
 456:Generated_Source\PSoC4/cy_em_eeprom.c **** 
 1574              		.loc 1 456 0
 1575 00c0 0124     		movs	r4, #1
 1576              	.L100:
 456:Generated_Source\PSoC4/cy_em_eeprom.c **** 
 1577              		.loc 1 456 0 discriminator 1
 1578 00c2 0027     		movs	r7, #0
 1579 00c4 35E0     		b	.L101
 1580              	.LVL228:
 1581              	.L108:
 460:Generated_Source\PSoC4/cy_em_eeprom.c ****                 {
 1582              		.loc 1 460 0 is_stmt 1
 1583 00c6 4445     		cmp	r4, r8
 1584 00c8 01D1     		bne	.L102
 466:Generated_Source\PSoC4/cy_em_eeprom.c ****                 }
 1585              		.loc 1 466 0
 1586 00ca 0CAE     		add	r6, sp, #48
 1587              	.LVL229:
 1588 00cc 04E0     		b	.L103
 1589              	.LVL230:
 1590              	.L102:
 473:Generated_Source\PSoC4/cy_em_eeprom.c ****                 }
 1591              		.loc 1 473 0
 1592 00ce 2900     		movs	r1, r5
 1593 00d0 2000     		movs	r0, r4
 1594 00d2 FFF7FEFF 		bl	GetRowAddrBySeqNum
 1595              	.LVL231:
 1596 00d6 0600     		movs	r6, r0
 1597              	.LVL232:
 1598              	.L103:
 476:Generated_Source\PSoC4/cy_em_eeprom.c ****                                                                            context->numberOfRows,
 1599              		.loc 1 476 0
 1600 00d8 099B     		ldr	r3, [sp, #36]
 1601 00da AA69     		ldr	r2, [r5, #24]
 1602 00dc 981A     		subs	r0, r3, r2
 1603 00de C009     		lsrs	r0, r0, #7
 1604 00e0 6968     		ldr	r1, [r5, #4]
 1605 00e2 FFF7FEFF 		bl	__aeabi_uidivmod
 1606              	.LVL233:
 479:Generated_Source\PSoC4/cy_em_eeprom.c ****                 {
 1607              		.loc 1 479 0
 1608 00e6 002E     		cmp	r6, #0
 1609 00e8 0BD0     		beq	.L104
 482:Generated_Source\PSoC4/cy_em_eeprom.c ****                                               &startAddr,
 1610              		.loc 1 482 0
 1611 00ea 7368     		ldr	r3, [r6, #4]
 1612 00ec B268     		ldr	r2, [r6, #8]
 1613 00ee 0192     		str	r2, [sp, #4]
ARM GAS  C:\Users\nbutts\AppData\Local\Temp\ccrYYXbt.s 			page 55


 1614 00f0 0093     		str	r3, [sp]
 1615 00f2 0B00     		movs	r3, r1
 1616 00f4 07AA     		add	r2, sp, #28
 1617 00f6 0AA9     		add	r1, sp, #40
 1618              	.LVL234:
 1619 00f8 0BA8     		add	r0, sp, #44
 1620 00fa FFF7FEFF 		bl	GetAddresses
 1621              	.LVL235:
 1622 00fe 0700     		movs	r7, r0
 1623              	.LVL236:
 1624 0100 00E0     		b	.L105
 1625              	.LVL237:
 1626              	.L104:
 493:Generated_Source\PSoC4/cy_em_eeprom.c ****                 }
 1627              		.loc 1 493 0
 1628 0102 0137     		adds	r7, r7, #1
 1629              	.LVL238:
 1630              	.L105:
 497:Generated_Source\PSoC4/cy_em_eeprom.c ****                 {
 1631              		.loc 1 497 0
 1632 0104 002F     		cmp	r7, #0
 1633 0106 0BD1     		bne	.L106
 1634              	.LBB16:
 499:Generated_Source\PSoC4/cy_em_eeprom.c **** 
 1635              		.loc 1 499 0
 1636 0108 0B9A     		ldr	r2, [sp, #44]
 1637 010a 0CAB     		add	r3, sp, #48
 1638 010c 9818     		adds	r0, r3, r2
 1639              	.LVL239:
 504:Generated_Source\PSoC4/cy_em_eeprom.c ****                     (void)memcpy((void *)(dataAddr), (void *)(tmpRowAddr), endAddr - startAddr);
 1640              		.loc 1 504 0
 1641 010e 079B     		ldr	r3, [sp, #28]
 1642 0110 9C46     		mov	ip, r3
 1643 0112 6644     		add	r6, r6, ip
 1644              	.LVL240:
 1645 0114 3100     		movs	r1, r6
 1646 0116 0C31     		adds	r1, r1, #12
 1647              	.LVL241:
 505:Generated_Source\PSoC4/cy_em_eeprom.c ****                 }
 1648              		.loc 1 505 0
 1649 0118 0A9B     		ldr	r3, [sp, #40]
 1650 011a 9A1A     		subs	r2, r3, r2
 1651 011c FFF7FEFF 		bl	memcpy
 1652              	.LVL242:
 1653              	.L106:
 1654              	.LBE16:
 509:Generated_Source\PSoC4/cy_em_eeprom.c ****                 {
 1655              		.loc 1 509 0
 1656 0120 2B7D     		ldrb	r3, [r5, #20]
 1657 0122 002B     		cmp	r3, #0
 1658 0124 04D0     		beq	.L107
 512:Generated_Source\PSoC4/cy_em_eeprom.c ****                                                   CY_EM_EEPROM_EEPROM_DATA_LEN);
 1659              		.loc 1 512 0
 1660 0126 4021     		movs	r1, #64
 1661 0128 1CA8     		add	r0, sp, #112
 1662 012a FFF7FEFF 		bl	CalcChecksum
 1663              	.LVL243:
ARM GAS  C:\Users\nbutts\AppData\Local\Temp\ccrYYXbt.s 			page 56


 511:Generated_Source\PSoC4/cy_em_eeprom.c ****                         CalcChecksum((uint8 *) &writeRamBuffer[CY_EM_EEPROM_EEPROM_DATA_OFFSET_U32]
 1664              		.loc 1 511 0
 1665 012e 1B90     		str	r0, [sp, #108]
 1666              	.L107:
 458:Generated_Source\PSoC4/cy_em_eeprom.c ****             {
 1667              		.loc 1 458 0
 1668 0130 0134     		adds	r4, r4, #1
 1669              	.LVL244:
 1670              	.L101:
 458:Generated_Source\PSoC4/cy_em_eeprom.c ****             {
 1671              		.loc 1 458 0 is_stmt 0 discriminator 1
 1672 0132 4445     		cmp	r4, r8
 1673 0134 C7D9     		bls	.L108
 518:Generated_Source\PSoC4/cy_em_eeprom.c ****             tmpRowAddr = emEepromRowAddr;
 1674              		.loc 1 518 0 is_stmt 1
 1675 0136 2A00     		movs	r2, r5
 1676 0138 0CA9     		add	r1, sp, #48
 1677 013a 0998     		ldr	r0, [sp, #36]
 1678 013c FFF7FEFF 		bl	WriteRow
 1679              	.LVL245:
 522:Generated_Source\PSoC4/cy_em_eeprom.c ****             {
 1680              		.loc 1 522 0
 1681 0140 2B7D     		ldrb	r3, [r5, #20]
 1682 0142 002B     		cmp	r3, #0
 1683 0144 0BD0     		beq	.L109
 522:Generated_Source\PSoC4/cy_em_eeprom.c ****             {
 1684              		.loc 1 522 0 is_stmt 0 discriminator 1
 1685 0146 0028     		cmp	r0, #0
 1686 0148 09D1     		bne	.L109
 525:Generated_Source\PSoC4/cy_em_eeprom.c **** 
 1687              		.loc 1 525 0 is_stmt 1
 1688 014a 099B     		ldr	r3, [sp, #36]
 1689 014c AA69     		ldr	r2, [r5, #24]
 1690 014e 981A     		subs	r0, r3, r2
 1691              	.LVL246:
 1692 0150 2B68     		ldr	r3, [r5]
 1693 0152 9C46     		mov	ip, r3
 1694 0154 6044     		add	r0, r0, ip
 1695              	.LVL247:
 528:Generated_Source\PSoC4/cy_em_eeprom.c ****             }
 1696              		.loc 1 528 0
 1697 0156 2A00     		movs	r2, r5
 1698 0158 0CA9     		add	r1, sp, #48
 1699 015a FFF7FEFF 		bl	WriteRow
 1700              	.LVL248:
 1701              	.L109:
 531:Generated_Source\PSoC4/cy_em_eeprom.c ****             {
 1702              		.loc 1 531 0
 1703 015e 0028     		cmp	r0, #0
 1704 0160 0ED1     		bne	.L95
 536:Generated_Source\PSoC4/cy_em_eeprom.c ****             }
 1705              		.loc 1 536 0 discriminator 2
 1706 0162 099B     		ldr	r3, [sp, #36]
 1707 0164 AB60     		str	r3, [r5, #8]
 1708              	.LBE15:
 399:Generated_Source\PSoC4/cy_em_eeprom.c ****         {
 1709              		.loc 1 399 0 discriminator 2
ARM GAS  C:\Users\nbutts\AppData\Local\Temp\ccrYYXbt.s 			page 57


 1710 0166 0123     		movs	r3, #1
 1711 0168 9C46     		mov	ip, r3
 1712 016a E144     		add	r9, r9, ip
 1713              	.LVL249:
 1714              	.L96:
 399:Generated_Source\PSoC4/cy_em_eeprom.c ****         {
 1715              		.loc 1 399 0 is_stmt 0 discriminator 1
 1716 016c 049B     		ldr	r3, [sp, #16]
 1717 016e 9945     		cmp	r9, r3
 1718 0170 00D2     		bcs	.LCB1937
 1719 0172 6EE7     		b	.L111	@long jump
 1720              	.LCB1937:
 1721 0174 04E0     		b	.L95
 1722              	.LVL250:
 1723              	.L112:
 1724              	.LBE17:
 380:Generated_Source\PSoC4/cy_em_eeprom.c ****     uint32 i;
 1725              		.loc 1 380 0 is_stmt 1
 1726 0176 0120     		movs	r0, #1
 1727              	.LVL251:
 1728 0178 02E0     		b	.L95
 1729              	.LVL252:
 1730              	.L113:
 1731 017a 0120     		movs	r0, #1
 1732              	.LVL253:
 1733 017c 00E0     		b	.L95
 1734              	.LVL254:
 1735              	.L114:
 1736 017e 0120     		movs	r0, #1
 1737              	.LVL255:
 1738              	.L95:
 545:Generated_Source\PSoC4/cy_em_eeprom.c **** 
 1739              		.loc 1 545 0
 1740 0180 2DB0     		add	sp, sp, #180
 1741              		@ sp needed
 1742              	.LVL256:
 1743              	.LVL257:
 1744              	.LVL258:
 1745 0182 3CBC     		pop	{r2, r3, r4, r5}
 1746 0184 9046     		mov	r8, r2
 1747 0186 9946     		mov	r9, r3
 1748 0188 A246     		mov	r10, r4
 1749 018a AB46     		mov	fp, r5
 1750 018c F0BD     		pop	{r4, r5, r6, r7, pc}
 1751              		.cfi_endproc
 1752              	.LFE3:
 1753              		.size	Cy_Em_EEPROM_Write, .-Cy_Em_EEPROM_Write
 1754 018e C046     		.section	.text.Cy_Em_EEPROM_Erase,"ax",%progbits
 1755              		.align	2
 1756              		.global	Cy_Em_EEPROM_Erase
 1757              		.code	16
 1758              		.thumb_func
 1759              		.type	Cy_Em_EEPROM_Erase, %function
 1760              	Cy_Em_EEPROM_Erase:
 1761              	.LFB4:
 592:Generated_Source\PSoC4/cy_em_eeprom.c ****     uint32 i;
 1762              		.loc 1 592 0
ARM GAS  C:\Users\nbutts\AppData\Local\Temp\ccrYYXbt.s 			page 58


 1763              		.cfi_startproc
 1764              		@ args = 0, pretend = 0, frame = 136
 1765              		@ frame_needed = 0, uses_anonymous_args = 0
 1766              	.LVL259:
 1767 0000 F0B5     		push	{r4, r5, r6, r7, lr}
 1768              		.cfi_def_cfa_offset 20
 1769              		.cfi_offset 4, -20
 1770              		.cfi_offset 5, -16
 1771              		.cfi_offset 6, -12
 1772              		.cfi_offset 7, -8
 1773              		.cfi_offset 14, -4
 1774 0002 A3B0     		sub	sp, sp, #140
 1775              		.cfi_def_cfa_offset 160
 1776 0004 0600     		movs	r6, r0
 595:Generated_Source\PSoC4/cy_em_eeprom.c ****     uint32 emEepromRowRdAddr;
 1777              		.loc 1 595 0
 1778 0006 8468     		ldr	r4, [r0, #8]
 1779 0008 2194     		str	r4, [sp, #132]
 1780              	.LVL260:
 598:Generated_Source\PSoC4/cy_em_eeprom.c **** #if (CY_PSOC6)
 1781              		.loc 1 598 0
 1782 000a 8022     		movs	r2, #128
 1783 000c 0021     		movs	r1, #0
 1784 000e 6846     		mov	r0, sp
 1785              	.LVL261:
 1786 0010 FFF7FEFF 		bl	memset
 1787              	.LVL262:
 605:Generated_Source\PSoC4/cy_em_eeprom.c **** 
 1788              		.loc 1 605 0
 1789 0014 2368     		ldr	r3, [r4]
 1790              	.LVL263:
 608:Generated_Source\PSoC4/cy_em_eeprom.c ****     {
 1791              		.loc 1 608 0
 1792 0016 002B     		cmp	r3, #0
 1793 0018 20D0     		beq	.L122
 1794              	.LBB18:
 611:Generated_Source\PSoC4/cy_em_eeprom.c **** 
 1795              		.loc 1 611 0
 1796 001a 3769     		ldr	r7, [r6, #16]
 1797 001c 7368     		ldr	r3, [r6, #4]
 1798              	.LVL264:
 1799 001e 5F43     		muls	r7, r3
 1800              	.LVL265:
 618:Generated_Source\PSoC4/cy_em_eeprom.c ****         {
 1801              		.loc 1 618 0
 1802 0020 337D     		ldrb	r3, [r6, #20]
 1803 0022 002B     		cmp	r3, #0
 1804 0024 04D0     		beq	.L119
 621:Generated_Source\PSoC4/cy_em_eeprom.c ****                                                   CY_EM_EEPROM_EEPROM_DATA_LEN);
 1805              		.loc 1 621 0
 1806 0026 4021     		movs	r1, #64
 1807 0028 10A8     		add	r0, sp, #64
 1808 002a FFF7FEFF 		bl	CalcChecksum
 1809              	.LVL266:
 620:Generated_Source\PSoC4/cy_em_eeprom.c ****                         CalcChecksum((uint8 *) &writeRamBuffer[CY_EM_EEPROM_EEPROM_DATA_OFFSET_U32]
 1810              		.loc 1 620 0
 1811 002e 0F90     		str	r0, [sp, #60]
ARM GAS  C:\Users\nbutts\AppData\Local\Temp\ccrYYXbt.s 			page 59


 1812              	.L119:
 1813              	.LBE18:
 592:Generated_Source\PSoC4/cy_em_eeprom.c ****     uint32 i;
 1814              		.loc 1 592 0 discriminator 1
 1815 0030 0420     		movs	r0, #4
 1816 0032 0025     		movs	r5, #0
 1817 0034 0FE0     		b	.L120
 1818              	.LVL267:
 1819              	.L121:
 1820              	.LBB19:
 647:Generated_Source\PSoC4/cy_em_eeprom.c ****             /* Get the address of the row to be erased. "emEepromRowAddr" may be updated
 1821              		.loc 1 647 0 discriminator 3
 1822 0036 219B     		ldr	r3, [sp, #132]
 1823 0038 1C68     		ldr	r4, [r3]
 1824              	.LVL268:
 651:Generated_Source\PSoC4/cy_em_eeprom.c ****             seqNum++;
 1825              		.loc 1 651 0 discriminator 3
 1826 003a 3300     		movs	r3, r6
 1827 003c 20AA     		add	r2, sp, #128
 1828 003e 21A9     		add	r1, sp, #132
 1829 0040 2000     		movs	r0, r4
 1830              	.LVL269:
 1831 0042 FFF7FEFF 		bl	GetNextRowToWrite
 1832              	.LVL270:
 652:Generated_Source\PSoC4/cy_em_eeprom.c ****             writeRamBuffer[0u] = seqNum;
 1833              		.loc 1 652 0 discriminator 3
 1834 0046 0134     		adds	r4, r4, #1
 1835              	.LVL271:
 653:Generated_Source\PSoC4/cy_em_eeprom.c ****             ret = EraseRow(emEepromRowAddr, (uint32)writeRamBuffer, context);
 1836              		.loc 1 653 0 discriminator 3
 1837 0048 0094     		str	r4, [sp]
 654:Generated_Source\PSoC4/cy_em_eeprom.c ****         #endif /* (CY_PSOC6) */
 1838              		.loc 1 654 0 discriminator 3
 1839 004a 3200     		movs	r2, r6
 1840 004c 6946     		mov	r1, sp
 1841 004e 2198     		ldr	r0, [sp, #132]
 1842 0050 FFF7FEFF 		bl	EraseRow
 1843              	.LVL272:
 625:Generated_Source\PSoC4/cy_em_eeprom.c ****         {
 1844              		.loc 1 625 0 discriminator 3
 1845 0054 0135     		adds	r5, r5, #1
 1846              	.LVL273:
 1847              	.L120:
 625:Generated_Source\PSoC4/cy_em_eeprom.c ****         {
 1848              		.loc 1 625 0 is_stmt 0 discriminator 1
 1849 0056 BD42     		cmp	r5, r7
 1850 0058 EDD3     		bcc	.L121
 1851 005a 00E0     		b	.L118
 1852              	.LVL274:
 1853              	.L122:
 1854              	.LBE19:
 597:Generated_Source\PSoC4/cy_em_eeprom.c ****     uint32 writeRamBuffer[CY_EM_EEPROM_FLASH_SIZEOF_ROW / CY_EM_EEPROM_U32_DIV] = {0u};
 1855              		.loc 1 597 0 is_stmt 1
 1856 005c 0420     		movs	r0, #4
 1857              	.LVL275:
 1858              	.L118:
 678:Generated_Source\PSoC4/cy_em_eeprom.c **** 
ARM GAS  C:\Users\nbutts\AppData\Local\Temp\ccrYYXbt.s 			page 60


 1859              		.loc 1 678 0
 1860 005e 23B0     		add	sp, sp, #140
 1861              		@ sp needed
 1862              	.LVL276:
 1863 0060 F0BD     		pop	{r4, r5, r6, r7, pc}
 1864              		.cfi_endproc
 1865              	.LFE4:
 1866              		.size	Cy_Em_EEPROM_Erase, .-Cy_Em_EEPROM_Erase
 1867 0062 C046     		.section	.text.Cy_Em_EEPROM_NumWrites,"ax",%progbits
 1868              		.align	2
 1869              		.global	Cy_Em_EEPROM_NumWrites
 1870              		.code	16
 1871              		.thumb_func
 1872              		.type	Cy_Em_EEPROM_NumWrites, %function
 1873              	Cy_Em_EEPROM_NumWrites:
 1874              	.LFB5:
 695:Generated_Source\PSoC4/cy_em_eeprom.c ****     return(CY_GET_REG32(context->lastWrRowAddr));
 1875              		.loc 1 695 0
 1876              		.cfi_startproc
 1877              		@ args = 0, pretend = 0, frame = 0
 1878              		@ frame_needed = 0, uses_anonymous_args = 0
 1879              		@ link register save eliminated.
 1880              	.LVL277:
 696:Generated_Source\PSoC4/cy_em_eeprom.c **** }
 1881              		.loc 1 696 0
 1882 0000 8368     		ldr	r3, [r0, #8]
 1883 0002 1868     		ldr	r0, [r3]
 1884              	.LVL278:
 697:Generated_Source\PSoC4/cy_em_eeprom.c **** 
 1885              		.loc 1 697 0
 1886              		@ sp needed
 1887 0004 7047     		bx	lr
 1888              		.cfi_endproc
 1889              	.LFE5:
 1890              		.size	Cy_Em_EEPROM_NumWrites, .-Cy_Em_EEPROM_NumWrites
 1891 0006 C046     		.text
 1892              	.Letext0:
 1893              		.file 2 "Generated_Source\\PSoC4\\cytypes.h"
 1894              		.file 3 "Generated_Source\\PSoC4\\cy_em_eeprom.h"
 1895              		.file 4 "Generated_Source\\PSoC4\\CyFlash.h"